
Opdracht B.3.elf:     file format elf32-avr

Sections:
Idx Name          Size      VMA       LMA       File off  Algn
  0 .data         00000010  00800100  0000108e  00001102  2**0
                  CONTENTS, ALLOC, LOAD, DATA
  1 .text         0000108e  00000000  00000000  00000074  2**1
                  CONTENTS, ALLOC, LOAD, READONLY, CODE
  2 .comment      0000005c  00000000  00000000  00001112  2**0
                  CONTENTS, READONLY
  3 .note.gnu.avr.deviceinfo 0000003c  00000000  00000000  00001170  2**2
                  CONTENTS, READONLY
  4 .debug_aranges 00000078  00000000  00000000  000011ac  2**0
                  CONTENTS, READONLY, DEBUGGING
  5 .debug_info   000007fb  00000000  00000000  00001224  2**0
                  CONTENTS, READONLY, DEBUGGING
  6 .debug_abbrev 00000394  00000000  00000000  00001a1f  2**0
                  CONTENTS, READONLY, DEBUGGING
  7 .debug_line   0000094c  00000000  00000000  00001db3  2**0
                  CONTENTS, READONLY, DEBUGGING
  8 .debug_frame  00000144  00000000  00000000  00002700  2**2
                  CONTENTS, READONLY, DEBUGGING
  9 .debug_str    0001184e  00000000  00000000  00002844  2**0
                  CONTENTS, READONLY, DEBUGGING
 10 .debug_loc    0000044b  00000000  00000000  00014092  2**0
                  CONTENTS, READONLY, DEBUGGING
 11 .debug_ranges 00000058  00000000  00000000  000144dd  2**0
                  CONTENTS, READONLY, DEBUGGING
 12 .debug_macro  00000740  00000000  00000000  00014535  2**0
                  CONTENTS, READONLY, DEBUGGING

Disassembly of section .text:

00000000 <__vectors>:
       0:	86 c0       	rjmp	.+268    	; 0x10e <__ctors_end>
       2:	00 00       	nop
       4:	99 c0       	rjmp	.+306    	; 0x138 <__bad_interrupt>
       6:	00 00       	nop
       8:	97 c0       	rjmp	.+302    	; 0x138 <__bad_interrupt>
       a:	00 00       	nop
       c:	95 c0       	rjmp	.+298    	; 0x138 <__bad_interrupt>
       e:	00 00       	nop
      10:	93 c0       	rjmp	.+294    	; 0x138 <__bad_interrupt>
      12:	00 00       	nop
      14:	91 c0       	rjmp	.+290    	; 0x138 <__bad_interrupt>
      16:	00 00       	nop
      18:	8f c0       	rjmp	.+286    	; 0x138 <__bad_interrupt>
      1a:	00 00       	nop
      1c:	8d c0       	rjmp	.+282    	; 0x138 <__bad_interrupt>
      1e:	00 00       	nop
      20:	8b c0       	rjmp	.+278    	; 0x138 <__bad_interrupt>
      22:	00 00       	nop
      24:	89 c0       	rjmp	.+274    	; 0x138 <__bad_interrupt>
      26:	00 00       	nop
      28:	87 c0       	rjmp	.+270    	; 0x138 <__bad_interrupt>
      2a:	00 00       	nop
      2c:	85 c0       	rjmp	.+266    	; 0x138 <__bad_interrupt>
      2e:	00 00       	nop
      30:	83 c0       	rjmp	.+262    	; 0x138 <__bad_interrupt>
      32:	00 00       	nop
      34:	81 c0       	rjmp	.+258    	; 0x138 <__bad_interrupt>
      36:	00 00       	nop
      38:	7f c0       	rjmp	.+254    	; 0x138 <__bad_interrupt>
      3a:	00 00       	nop
      3c:	7d c0       	rjmp	.+250    	; 0x138 <__bad_interrupt>
      3e:	00 00       	nop
      40:	7b c0       	rjmp	.+246    	; 0x138 <__bad_interrupt>
      42:	00 00       	nop
      44:	79 c0       	rjmp	.+242    	; 0x138 <__bad_interrupt>
      46:	00 00       	nop
      48:	77 c0       	rjmp	.+238    	; 0x138 <__bad_interrupt>
      4a:	00 00       	nop
      4c:	75 c0       	rjmp	.+234    	; 0x138 <__bad_interrupt>
      4e:	00 00       	nop
      50:	73 c0       	rjmp	.+230    	; 0x138 <__bad_interrupt>
      52:	00 00       	nop
      54:	71 c0       	rjmp	.+226    	; 0x138 <__bad_interrupt>
      56:	00 00       	nop
      58:	6f c0       	rjmp	.+222    	; 0x138 <__bad_interrupt>
      5a:	00 00       	nop
      5c:	6d c0       	rjmp	.+218    	; 0x138 <__bad_interrupt>
      5e:	00 00       	nop
      60:	6b c0       	rjmp	.+214    	; 0x138 <__bad_interrupt>
      62:	00 00       	nop
      64:	69 c0       	rjmp	.+210    	; 0x138 <__bad_interrupt>
      66:	00 00       	nop
      68:	67 c0       	rjmp	.+206    	; 0x138 <__bad_interrupt>
      6a:	00 00       	nop
      6c:	65 c0       	rjmp	.+202    	; 0x138 <__bad_interrupt>
      6e:	00 00       	nop
      70:	63 c0       	rjmp	.+198    	; 0x138 <__bad_interrupt>
      72:	00 00       	nop
      74:	61 c0       	rjmp	.+194    	; 0x138 <__bad_interrupt>
      76:	00 00       	nop
      78:	5f c0       	rjmp	.+190    	; 0x138 <__bad_interrupt>
      7a:	00 00       	nop
      7c:	5d c0       	rjmp	.+186    	; 0x138 <__bad_interrupt>
      7e:	00 00       	nop
      80:	5b c0       	rjmp	.+182    	; 0x138 <__bad_interrupt>
      82:	00 00       	nop
      84:	59 c0       	rjmp	.+178    	; 0x138 <__bad_interrupt>
      86:	00 00       	nop
      88:	57 c0       	rjmp	.+174    	; 0x138 <__bad_interrupt>
      8a:	00 00       	nop
      8c:	07 63       	ori	r16, 0x37	; 55
      8e:	42 36       	cpi	r20, 0x62	; 98
      90:	b7 9b       	sbis	0x16, 7	; 22
      92:	d8 a7       	std	Y+40, r29	; 0x28
      94:	1a 39       	cpi	r17, 0x9A	; 154
      96:	68 56       	subi	r22, 0x68	; 104
      98:	18 ae       	std	Y+56, r1	; 0x38
      9a:	ba ab       	std	Y+50, r27	; 0x32
      9c:	55 8c       	ldd	r5, Z+29	; 0x1d
      9e:	1d 3c       	cpi	r17, 0xCD	; 205
      a0:	b7 cc       	rjmp	.-1682   	; 0xfffffa10 <__eeprom_end+0xff7efa10>
      a2:	57 63       	ori	r21, 0x37	; 55
      a4:	bd 6d       	ori	r27, 0xDD	; 221
      a6:	ed fd       	.word	0xfded	; ????
      a8:	75 3e       	cpi	r23, 0xE5	; 229
      aa:	f6 17       	cp	r31, r22
      ac:	72 31       	cpi	r23, 0x12	; 18
      ae:	bf 00       	.word	0x00bf	; ????
      b0:	00 00       	nop
      b2:	80 3f       	cpi	r24, 0xF0	; 240
      b4:	08 00       	.word	0x0008	; ????
      b6:	00 00       	nop
      b8:	be 92       	st	-X, r11
      ba:	24 49       	sbci	r18, 0x94	; 148
      bc:	12 3e       	cpi	r17, 0xE2	; 226
      be:	ab aa       	std	Y+51, r10	; 0x33
      c0:	aa 2a       	or	r10, r26
      c2:	be cd       	rjmp	.-1156   	; 0xfffffc40 <__eeprom_end+0xff7efc40>
      c4:	cc cc       	rjmp	.-1640   	; 0xfffffa5e <__eeprom_end+0xff7efa5e>
      c6:	4c 3e       	cpi	r20, 0xEC	; 236
      c8:	00 00       	nop
      ca:	00 80       	ld	r0, Z
      cc:	be ab       	std	Y+54, r27	; 0x36
      ce:	aa aa       	std	Y+50, r10	; 0x32
      d0:	aa 3e       	cpi	r26, 0xEA	; 234
      d2:	00 00       	nop
      d4:	00 00       	nop
      d6:	bf 00       	.word	0x00bf	; ????
      d8:	00 00       	nop
      da:	80 3f       	cpi	r24, 0xF0	; 240
      dc:	00 00       	nop
      de:	00 00       	nop
      e0:	00 08       	sbc	r0, r0
      e2:	41 78       	andi	r20, 0x81	; 129
      e4:	d3 bb       	out	0x13, r29	; 19
      e6:	43 87       	std	Z+11, r20	; 0x0b
      e8:	d1 13       	cpse	r29, r17
      ea:	3d 19       	sub	r19, r13
      ec:	0e 3c       	cpi	r16, 0xCE	; 206
      ee:	c3 bd       	out	0x23, r28	; 35
      f0:	42 82       	std	Z+2, r4	; 0x02
      f2:	ad 2b       	or	r26, r29
      f4:	3e 68       	ori	r19, 0x8E	; 142
      f6:	ec 82       	std	Y+4, r14	; 0x04
      f8:	76 be       	out	0x36, r7	; 54
      fa:	d9 8f       	std	Y+25, r29	; 0x19
      fc:	e1 a9       	ldd	r30, Z+49	; 0x31
      fe:	3e 4c       	sbci	r19, 0xCE	; 206
     100:	80 ef       	ldi	r24, 0xF0	; 240
     102:	ff be       	out	0x3f, r15	; 63
     104:	01 c4       	rjmp	.+2050   	; 0x908 <log+0x30>
     106:	ff 7f       	andi	r31, 0xFF	; 255
     108:	3f 00       	.word	0x003f	; ????
     10a:	00 00       	nop
	...

0000010e <__ctors_end>:
     10e:	11 24       	eor	r1, r1
     110:	1f be       	out	0x3f, r1	; 63
     112:	cf ef       	ldi	r28, 0xFF	; 255
     114:	d0 e1       	ldi	r29, 0x10	; 16
     116:	de bf       	out	0x3e, r29	; 62
     118:	cd bf       	out	0x3d, r28	; 61

0000011a <__do_copy_data>:
     11a:	11 e0       	ldi	r17, 0x01	; 1
     11c:	a0 e0       	ldi	r26, 0x00	; 0
     11e:	b1 e0       	ldi	r27, 0x01	; 1
     120:	ee e8       	ldi	r30, 0x8E	; 142
     122:	f0 e1       	ldi	r31, 0x10	; 16
     124:	00 e0       	ldi	r16, 0x00	; 0
     126:	0b bf       	out	0x3b, r16	; 59
     128:	02 c0       	rjmp	.+4      	; 0x12e <__do_copy_data+0x14>
     12a:	07 90       	elpm	r0, Z+
     12c:	0d 92       	st	X+, r0
     12e:	a0 31       	cpi	r26, 0x10	; 16
     130:	b1 07       	cpc	r27, r17
     132:	d9 f7       	brne	.-10     	; 0x12a <__do_copy_data+0x10>
     134:	2d d1       	rcall	.+602    	; 0x390 <main>
     136:	a9 c7       	rjmp	.+3922   	; 0x108a <_exit>

00000138 <__bad_interrupt>:
     138:	63 cf       	rjmp	.-314    	; 0x0 <__vectors>

0000013a <lcd_command>:
		lcd_command(value);
	}
	else
	{
		value = 0x80 + position;
		lcd_command(value);
     13a:	98 2f       	mov	r25, r24
     13c:	90 7f       	andi	r25, 0xF0	; 240
     13e:	95 bb       	out	0x15, r25	; 21
     140:	ab 9a       	sbi	0x15, 3	; 21
     142:	e9 e6       	ldi	r30, 0x69	; 105
     144:	f8 e1       	ldi	r31, 0x18	; 24
     146:	31 97       	sbiw	r30, 0x01	; 1
     148:	f1 f7       	brne	.-4      	; 0x146 <lcd_command+0xc>
     14a:	00 c0       	rjmp	.+0      	; 0x14c <lcd_command+0x12>
     14c:	00 00       	nop
     14e:	94 e0       	ldi	r25, 0x04	; 4
     150:	95 bb       	out	0x15, r25	; 21
     152:	f0 e1       	ldi	r31, 0x10	; 16
     154:	8f 9f       	mul	r24, r31
     156:	c0 01       	movw	r24, r0
     158:	11 24       	eor	r1, r1
     15a:	85 bb       	out	0x15, r24	; 21
     15c:	ab 9a       	sbi	0x15, 3	; 21
     15e:	89 e6       	ldi	r24, 0x69	; 105
     160:	98 e1       	ldi	r25, 0x18	; 24
     162:	01 97       	sbiw	r24, 0x01	; 1
     164:	f1 f7       	brne	.-4      	; 0x162 <lcd_command+0x28>
     166:	00 c0       	rjmp	.+0      	; 0x168 <lcd_command+0x2e>
     168:	00 00       	nop
     16a:	15 ba       	out	0x15, r1	; 21
     16c:	08 95       	ret

0000016e <init_lcd>:
     16e:	8f ef       	ldi	r24, 0xFF	; 255
     170:	84 bb       	out	0x14, r24	; 20
     172:	89 e6       	ldi	r24, 0x69	; 105
     174:	98 e1       	ldi	r25, 0x18	; 24
     176:	01 97       	sbiw	r24, 0x01	; 1
     178:	f1 f7       	brne	.-4      	; 0x176 <init_lcd+0x8>
     17a:	00 c0       	rjmp	.+0      	; 0x17c <init_lcd+0xe>
     17c:	00 00       	nop
     17e:	82 e0       	ldi	r24, 0x02	; 2
     180:	dc df       	rcall	.-72     	; 0x13a <lcd_command>
     182:	89 e6       	ldi	r24, 0x69	; 105
     184:	98 e1       	ldi	r25, 0x18	; 24
     186:	01 97       	sbiw	r24, 0x01	; 1
     188:	f1 f7       	brne	.-4      	; 0x186 <init_lcd+0x18>
     18a:	00 c0       	rjmp	.+0      	; 0x18c <init_lcd+0x1e>
     18c:	00 00       	nop
     18e:	88 e2       	ldi	r24, 0x28	; 40
     190:	d4 df       	rcall	.-88     	; 0x13a <lcd_command>
     192:	89 e6       	ldi	r24, 0x69	; 105
     194:	98 e1       	ldi	r25, 0x18	; 24
     196:	01 97       	sbiw	r24, 0x01	; 1
     198:	f1 f7       	brne	.-4      	; 0x196 <init_lcd+0x28>
     19a:	00 c0       	rjmp	.+0      	; 0x19c <init_lcd+0x2e>
     19c:	00 00       	nop
     19e:	8c e0       	ldi	r24, 0x0C	; 12
     1a0:	cc df       	rcall	.-104    	; 0x13a <lcd_command>
     1a2:	89 e6       	ldi	r24, 0x69	; 105
     1a4:	98 e1       	ldi	r25, 0x18	; 24
     1a6:	01 97       	sbiw	r24, 0x01	; 1
     1a8:	f1 f7       	brne	.-4      	; 0x1a6 <init_lcd+0x38>
     1aa:	00 c0       	rjmp	.+0      	; 0x1ac <init_lcd+0x3e>
     1ac:	00 00       	nop
     1ae:	86 e0       	ldi	r24, 0x06	; 6
     1b0:	c4 df       	rcall	.-120    	; 0x13a <lcd_command>
     1b2:	89 e6       	ldi	r24, 0x69	; 105
     1b4:	98 e1       	ldi	r25, 0x18	; 24
     1b6:	01 97       	sbiw	r24, 0x01	; 1
     1b8:	f1 f7       	brne	.-4      	; 0x1b6 <init_lcd+0x48>
     1ba:	00 c0       	rjmp	.+0      	; 0x1bc <init_lcd+0x4e>
     1bc:	00 00       	nop
     1be:	80 e8       	ldi	r24, 0x80	; 128
     1c0:	bc df       	rcall	.-136    	; 0x13a <lcd_command>
     1c2:	89 e6       	ldi	r24, 0x69	; 105
     1c4:	98 e1       	ldi	r25, 0x18	; 24
     1c6:	01 97       	sbiw	r24, 0x01	; 1
     1c8:	f1 f7       	brne	.-4      	; 0x1c6 <init_lcd+0x58>
     1ca:	00 c0       	rjmp	.+0      	; 0x1cc <init_lcd+0x5e>
     1cc:	00 00       	nop
     1ce:	81 e0       	ldi	r24, 0x01	; 1
     1d0:	b4 df       	rcall	.-152    	; 0x13a <lcd_command>
     1d2:	89 e6       	ldi	r24, 0x69	; 105
     1d4:	98 e1       	ldi	r25, 0x18	; 24
     1d6:	01 97       	sbiw	r24, 0x01	; 1
     1d8:	f1 f7       	brne	.-4      	; 0x1d6 <init_lcd+0x68>
     1da:	00 c0       	rjmp	.+0      	; 0x1dc <init_lcd+0x6e>
     1dc:	00 00       	nop
     1de:	08 95       	ret

000001e0 <lcd_writeChar>:
     1e0:	98 2f       	mov	r25, r24
     1e2:	90 7f       	andi	r25, 0xF0	; 240
     1e4:	95 bb       	out	0x15, r25	; 21
     1e6:	95 b3       	in	r25, 0x15	; 21
     1e8:	9c 60       	ori	r25, 0x0C	; 12
     1ea:	95 bb       	out	0x15, r25	; 21
     1ec:	e9 e6       	ldi	r30, 0x69	; 105
     1ee:	f8 e1       	ldi	r31, 0x18	; 24
     1f0:	31 97       	sbiw	r30, 0x01	; 1
     1f2:	f1 f7       	brne	.-4      	; 0x1f0 <lcd_writeChar+0x10>
     1f4:	00 c0       	rjmp	.+0      	; 0x1f6 <lcd_writeChar+0x16>
     1f6:	00 00       	nop
     1f8:	94 e0       	ldi	r25, 0x04	; 4
     1fa:	95 bb       	out	0x15, r25	; 21
     1fc:	f0 e1       	ldi	r31, 0x10	; 16
     1fe:	8f 9f       	mul	r24, r31
     200:	c0 01       	movw	r24, r0
     202:	11 24       	eor	r1, r1
     204:	85 bb       	out	0x15, r24	; 21
     206:	85 b3       	in	r24, 0x15	; 21
     208:	8c 60       	ori	r24, 0x0C	; 12
     20a:	85 bb       	out	0x15, r24	; 21
     20c:	89 e6       	ldi	r24, 0x69	; 105
     20e:	98 e1       	ldi	r25, 0x18	; 24
     210:	01 97       	sbiw	r24, 0x01	; 1
     212:	f1 f7       	brne	.-4      	; 0x210 <lcd_writeChar+0x30>
     214:	00 c0       	rjmp	.+0      	; 0x216 <lcd_writeChar+0x36>
     216:	00 00       	nop
     218:	15 ba       	out	0x15, r1	; 21
     21a:	08 95       	ret

0000021c <lcd_writeLine>:
	}
 }

 void lcd_writeLine( char text[], int line)
 {
     21c:	ef 92       	push	r14
     21e:	ff 92       	push	r15
     220:	0f 93       	push	r16
     222:	1f 93       	push	r17
     224:	cf 93       	push	r28
     226:	df 93       	push	r29
     228:	ec 01       	movw	r28, r24
	 // eerst de eerste 8 karakters = regel 1
	 // eerste pos regel 1
	 if(line == 2)
     22a:	62 30       	cpi	r22, 0x02	; 2
     22c:	71 05       	cpc	r23, r1
     22e:	b9 f4       	brne	.+46     	; 0x25e <lcd_writeLine+0x42>
	 {
		 lcd_command(0xC0);
     230:	80 ec       	ldi	r24, 0xC0	; 192
     232:	83 df       	rcall	.-250    	; 0x13a <lcd_command>
     234:	7e 01       	movw	r14, r28
			for (int i=0; i < strlen(text); i++) {
     236:	00 e0       	ldi	r16, 0x00	; 0
     238:	10 e0       	ldi	r17, 0x00	; 0
     23a:	06 c0       	rjmp	.+12     	; 0x248 <lcd_writeLine+0x2c>
			 lcd_writeChar( text[i] );
     23c:	f7 01       	movw	r30, r14
     23e:	81 91       	ld	r24, Z+
     240:	7f 01       	movw	r14, r30
     242:	ce df       	rcall	.-100    	; 0x1e0 <lcd_writeChar>
	 // eerst de eerste 8 karakters = regel 1
	 // eerste pos regel 1
	 if(line == 2)
	 {
		 lcd_command(0xC0);
			for (int i=0; i < strlen(text); i++) {
     244:	0f 5f       	subi	r16, 0xFF	; 255
     246:	1f 4f       	sbci	r17, 0xFF	; 255
     248:	fe 01       	movw	r30, r28
     24a:	01 90       	ld	r0, Z+
     24c:	00 20       	and	r0, r0
     24e:	e9 f7       	brne	.-6      	; 0x24a <lcd_writeLine+0x2e>
     250:	31 97       	sbiw	r30, 0x01	; 1
     252:	ec 1b       	sub	r30, r28
     254:	fd 0b       	sbc	r31, r29
     256:	0e 17       	cp	r16, r30
     258:	1f 07       	cpc	r17, r31
     25a:	80 f3       	brcs	.-32     	; 0x23c <lcd_writeLine+0x20>
     25c:	16 c0       	rjmp	.+44     	; 0x28a <lcd_writeLine+0x6e>
			 lcd_writeChar( text[i] );
			}
	 }
	 else
	 {
	 	 lcd_command(0x80);
     25e:	80 e8       	ldi	r24, 0x80	; 128
     260:	6c df       	rcall	.-296    	; 0x13a <lcd_command>
     262:	7e 01       	movw	r14, r28
	 	 for (int i=0; i < strlen(text); i++) {
     264:	00 e0       	ldi	r16, 0x00	; 0
     266:	10 e0       	ldi	r17, 0x00	; 0
     268:	06 c0       	rjmp	.+12     	; 0x276 <lcd_writeLine+0x5a>
		 	 lcd_writeChar( text[i] );
     26a:	f7 01       	movw	r30, r14
     26c:	81 91       	ld	r24, Z+
     26e:	7f 01       	movw	r14, r30
     270:	b7 df       	rcall	.-146    	; 0x1e0 <lcd_writeChar>
			}
	 }
	 else
	 {
	 	 lcd_command(0x80);
	 	 for (int i=0; i < strlen(text); i++) {
     272:	0f 5f       	subi	r16, 0xFF	; 255
     274:	1f 4f       	sbci	r17, 0xFF	; 255
     276:	fe 01       	movw	r30, r28
     278:	01 90       	ld	r0, Z+
     27a:	00 20       	and	r0, r0
     27c:	e9 f7       	brne	.-6      	; 0x278 <lcd_writeLine+0x5c>
     27e:	31 97       	sbiw	r30, 0x01	; 1
     280:	ec 1b       	sub	r30, r28
     282:	fd 0b       	sbc	r31, r29
     284:	0e 17       	cp	r16, r30
     286:	1f 07       	cpc	r17, r31
     288:	80 f3       	brcs	.-32     	; 0x26a <lcd_writeLine+0x4e>
		 	 lcd_writeChar( text[i] );
	 	 }
	 }
 }
     28a:	df 91       	pop	r29
     28c:	cf 91       	pop	r28
     28e:	1f 91       	pop	r17
     290:	0f 91       	pop	r16
     292:	ff 90       	pop	r15
     294:	ef 90       	pop	r14
     296:	08 95       	ret

00000298 <wait>:

// wait(): busy waiting for 'ms' millisecond
// Used library: util/delay.h
void wait( int ms )
{
	for (int tms=0; tms<ms; tms++)
     298:	18 16       	cp	r1, r24
     29a:	19 06       	cpc	r1, r25
     29c:	6c f4       	brge	.+26     	; 0x2b8 <wait+0x20>
     29e:	20 e0       	ldi	r18, 0x00	; 0
     2a0:	30 e0       	ldi	r19, 0x00	; 0
	#else
		//round up by default
		__ticks_dc = (uint32_t)(ceil(fabs(__tmp)));
	#endif

	__builtin_avr_delay_cycles(__ticks_dc);
     2a2:	e9 ef       	ldi	r30, 0xF9	; 249
     2a4:	f0 e0       	ldi	r31, 0x00	; 0
     2a6:	31 97       	sbiw	r30, 0x01	; 1
     2a8:	f1 f7       	brne	.-4      	; 0x2a6 <wait+0xe>
     2aa:	00 c0       	rjmp	.+0      	; 0x2ac <wait+0x14>
     2ac:	00 00       	nop
     2ae:	2f 5f       	subi	r18, 0xFF	; 255
     2b0:	3f 4f       	sbci	r19, 0xFF	; 255
     2b2:	28 17       	cp	r18, r24
     2b4:	39 07       	cpc	r19, r25
     2b6:	a9 f7       	brne	.-22     	; 0x2a2 <wait+0xa>
     2b8:	08 95       	ret

000002ba <adcInit>:


// Initialize ADC: 10-bits (left justified), free running
void adcInit( void )
{
	ADMUX = 0b01100001;			// AREF=VCC, result left adjusted, channel1 at pin PF1
     2ba:	81 e6       	ldi	r24, 0x61	; 97
     2bc:	87 b9       	out	0x07, r24	; 7
	ADCSRA = 0b11100110;		// ADC-enable, no interrupt, start, free running, division by 64
     2be:	86 ee       	ldi	r24, 0xE6	; 230
     2c0:	86 b9       	out	0x06, r24	; 6
     2c2:	08 95       	ret

000002c4 <binary_decimal>:
}

int binary_decimal(int n) /* Function to convert binary to decimal.*/

{
     2c4:	2f 92       	push	r2
     2c6:	3f 92       	push	r3
     2c8:	4f 92       	push	r4
     2ca:	5f 92       	push	r5
     2cc:	6f 92       	push	r6
     2ce:	7f 92       	push	r7
     2d0:	8f 92       	push	r8
     2d2:	9f 92       	push	r9
     2d4:	af 92       	push	r10
     2d6:	bf 92       	push	r11
     2d8:	cf 92       	push	r12
     2da:	df 92       	push	r13
     2dc:	ef 92       	push	r14
     2de:	ff 92       	push	r15
     2e0:	0f 93       	push	r16
     2e2:	1f 93       	push	r17
     2e4:	cf 93       	push	r28
     2e6:	df 93       	push	r29
     2e8:	7c 01       	movw	r14, r24
	int decimal=0, i=0, rem;
	while (n!=0)
     2ea:	89 2b       	or	r24, r25
     2ec:	09 f4       	brne	.+2      	; 0x2f0 <binary_decimal+0x2c>
     2ee:	3a c0       	rjmp	.+116    	; 0x364 <binary_decimal+0xa0>
     2f0:	c1 2c       	mov	r12, r1
     2f2:	d1 2c       	mov	r13, r1
     2f4:	c0 e0       	ldi	r28, 0x00	; 0
     2f6:	d0 e0       	ldi	r29, 0x00	; 0
	{
		rem = n%10;
     2f8:	0f 2e       	mov	r0, r31
     2fa:	fa e0       	ldi	r31, 0x0A	; 10
     2fc:	2f 2e       	mov	r2, r31
     2fe:	31 2c       	mov	r3, r1
     300:	f0 2d       	mov	r31, r0
		n/=10;
     302:	c7 01       	movw	r24, r14
     304:	b1 01       	movw	r22, r2
     306:	d1 d3       	rcall	.+1954   	; 0xaaa <__divmodhi4>
     308:	7b 01       	movw	r14, r22
     30a:	8c 01       	movw	r16, r24
		decimal += rem*pow(2,i);
     30c:	b6 01       	movw	r22, r12
     30e:	0d 2c       	mov	r0, r13
     310:	00 0c       	add	r0, r0
     312:	88 0b       	sbc	r24, r24
     314:	99 0b       	sbc	r25, r25
     316:	0d d1       	rcall	.+538    	; 0x532 <__floatsisf>
     318:	9b 01       	movw	r18, r22
     31a:	ac 01       	movw	r20, r24
     31c:	60 e0       	ldi	r22, 0x00	; 0
     31e:	70 e0       	ldi	r23, 0x00	; 0
     320:	80 e0       	ldi	r24, 0x00	; 0
     322:	90 e4       	ldi	r25, 0x40	; 64
     324:	f5 d1       	rcall	.+1002   	; 0x710 <pow>
     326:	4b 01       	movw	r8, r22
     328:	5c 01       	movw	r10, r24
     32a:	be 01       	movw	r22, r28
     32c:	dd 0f       	add	r29, r29
     32e:	88 0b       	sbc	r24, r24
     330:	99 0b       	sbc	r25, r25
     332:	ff d0       	rcall	.+510    	; 0x532 <__floatsisf>
     334:	2b 01       	movw	r4, r22
     336:	3c 01       	movw	r6, r24
     338:	b8 01       	movw	r22, r16
     33a:	11 0f       	add	r17, r17
     33c:	88 0b       	sbc	r24, r24
     33e:	99 0b       	sbc	r25, r25
     340:	f8 d0       	rcall	.+496    	; 0x532 <__floatsisf>
     342:	a5 01       	movw	r20, r10
     344:	94 01       	movw	r18, r8
     346:	81 d1       	rcall	.+770    	; 0x64a <__mulsf3>
     348:	9b 01       	movw	r18, r22
     34a:	ac 01       	movw	r20, r24
     34c:	c3 01       	movw	r24, r6
     34e:	b2 01       	movw	r22, r4
     350:	59 d0       	rcall	.+178    	; 0x404 <__addsf3>
     352:	bc d0       	rcall	.+376    	; 0x4cc <__fixsfsi>
     354:	eb 01       	movw	r28, r22
		++i;
     356:	8f ef       	ldi	r24, 0xFF	; 255
     358:	c8 1a       	sub	r12, r24
     35a:	d8 0a       	sbc	r13, r24

int binary_decimal(int n) /* Function to convert binary to decimal.*/

{
	int decimal=0, i=0, rem;
	while (n!=0)
     35c:	e1 14       	cp	r14, r1
     35e:	f1 04       	cpc	r15, r1
     360:	81 f6       	brne	.-96     	; 0x302 <binary_decimal+0x3e>
     362:	02 c0       	rjmp	.+4      	; 0x368 <binary_decimal+0xa4>
}

int binary_decimal(int n) /* Function to convert binary to decimal.*/

{
	int decimal=0, i=0, rem;
     364:	c0 e0       	ldi	r28, 0x00	; 0
     366:	d0 e0       	ldi	r29, 0x00	; 0
		n/=10;
		decimal += rem*pow(2,i);
		++i;
	}
	return decimal;
}
     368:	ce 01       	movw	r24, r28
     36a:	df 91       	pop	r29
     36c:	cf 91       	pop	r28
     36e:	1f 91       	pop	r17
     370:	0f 91       	pop	r16
     372:	ff 90       	pop	r15
     374:	ef 90       	pop	r14
     376:	df 90       	pop	r13
     378:	cf 90       	pop	r12
     37a:	bf 90       	pop	r11
     37c:	af 90       	pop	r10
     37e:	9f 90       	pop	r9
     380:	8f 90       	pop	r8
     382:	7f 90       	pop	r7
     384:	6f 90       	pop	r6
     386:	5f 90       	pop	r5
     388:	4f 90       	pop	r4
     38a:	3f 90       	pop	r3
     38c:	2f 90       	pop	r2
     38e:	08 95       	ret

00000390 <main>:

// Main program: ADC at PF1
int main( void )
{
     390:	cf 93       	push	r28
     392:	df 93       	push	r29
     394:	cd b7       	in	r28, 0x3d	; 61
     396:	de b7       	in	r29, 0x3e	; 62
     398:	64 97       	sbiw	r28, 0x14	; 20
     39a:	0f b6       	in	r0, 0x3f	; 63
     39c:	f8 94       	cli
     39e:	de bf       	out	0x3e, r29	; 62
     3a0:	0f be       	out	0x3f, r0	; 63
     3a2:	cd bf       	out	0x3d, r28	; 61
	DDRF = 0x00;				// set PORTF for input (ADC)
     3a4:	10 92 61 00 	sts	0x0061, r1
	DDRA = 0xFF;				// set PORTA for output 
     3a8:	8f ef       	ldi	r24, 0xFF	; 255
     3aa:	8a bb       	out	0x1a, r24	; 26
	DDRB = 0xFF;				// set PORTB for output
     3ac:	87 bb       	out	0x17, r24	; 23
	adcInit();					// initialize ADC
     3ae:	85 df       	rcall	.-246    	; 0x2ba <adcInit>
	init_lcd();
     3b0:	de de       	rcall	.-580    	; 0x16e <init_lcd>
	while (1)
	{
		PORTB = ADCL;			// Show MSB/LSB (bit 10:0) of ADC
		PORTA = ADCH;
		wait(100);				// every 100 ms (busy waiting)
		sprintf(str, "Temperatuur: %d",	binary_decimal(ADCL)); //converteer binair to decimal and put it in a char array
     3b2:	0f 2e       	mov	r0, r31
     3b4:	f0 e0       	ldi	r31, 0x00	; 0
     3b6:	ef 2e       	mov	r14, r31
     3b8:	f1 e0       	ldi	r31, 0x01	; 1
     3ba:	ff 2e       	mov	r15, r31
     3bc:	f0 2d       	mov	r31, r0
     3be:	8e 01       	movw	r16, r28
     3c0:	0f 5f       	subi	r16, 0xFF	; 255
     3c2:	1f 4f       	sbci	r17, 0xFF	; 255
	init_lcd();
	char str[20];

	while (1)
	{
		PORTB = ADCL;			// Show MSB/LSB (bit 10:0) of ADC
     3c4:	84 b1       	in	r24, 0x04	; 4
     3c6:	88 bb       	out	0x18, r24	; 24
		PORTA = ADCH;
     3c8:	85 b1       	in	r24, 0x05	; 5
     3ca:	8b bb       	out	0x1b, r24	; 27
		wait(100);				// every 100 ms (busy waiting)
     3cc:	84 e6       	ldi	r24, 0x64	; 100
     3ce:	90 e0       	ldi	r25, 0x00	; 0
     3d0:	63 df       	rcall	.-314    	; 0x298 <wait>
		sprintf(str, "Temperatuur: %d",	binary_decimal(ADCL)); //converteer binair to decimal and put it in a char array
     3d2:	84 b1       	in	r24, 0x04	; 4
     3d4:	90 e0       	ldi	r25, 0x00	; 0
     3d6:	76 df       	rcall	.-276    	; 0x2c4 <binary_decimal>
     3d8:	9f 93       	push	r25
     3da:	8f 93       	push	r24
     3dc:	ff 92       	push	r15
     3de:	ef 92       	push	r14
     3e0:	1f 93       	push	r17
     3e2:	0f 93       	push	r16
     3e4:	89 d3       	rcall	.+1810   	; 0xaf8 <sprintf>
		lcd_writeLine(str, 1);
     3e6:	61 e0       	ldi	r22, 0x01	; 1
     3e8:	70 e0       	ldi	r23, 0x00	; 0
     3ea:	c8 01       	movw	r24, r16
     3ec:	17 df       	rcall	.-466    	; 0x21c <lcd_writeLine>
		wait(1000);
     3ee:	88 ee       	ldi	r24, 0xE8	; 232
     3f0:	93 e0       	ldi	r25, 0x03	; 3
     3f2:	52 df       	rcall	.-348    	; 0x298 <wait>
	}
     3f4:	0f 90       	pop	r0
     3f6:	0f 90       	pop	r0
     3f8:	0f 90       	pop	r0
     3fa:	0f 90       	pop	r0
     3fc:	0f 90       	pop	r0
     3fe:	0f 90       	pop	r0
     400:	e1 cf       	rjmp	.-62     	; 0x3c4 <main+0x34>

00000402 <__subsf3>:
     402:	50 58       	subi	r21, 0x80	; 128

00000404 <__addsf3>:
     404:	bb 27       	eor	r27, r27
     406:	aa 27       	eor	r26, r26
     408:	0e d0       	rcall	.+28     	; 0x426 <__addsf3x>
     40a:	e5 c0       	rjmp	.+458    	; 0x5d6 <__fp_round>
     40c:	d6 d0       	rcall	.+428    	; 0x5ba <__fp_pscA>
     40e:	30 f0       	brcs	.+12     	; 0x41c <__addsf3+0x18>
     410:	db d0       	rcall	.+438    	; 0x5c8 <__fp_pscB>
     412:	20 f0       	brcs	.+8      	; 0x41c <__addsf3+0x18>
     414:	31 f4       	brne	.+12     	; 0x422 <__addsf3+0x1e>
     416:	9f 3f       	cpi	r25, 0xFF	; 255
     418:	11 f4       	brne	.+4      	; 0x41e <__addsf3+0x1a>
     41a:	1e f4       	brtc	.+6      	; 0x422 <__addsf3+0x1e>
     41c:	cb c0       	rjmp	.+406    	; 0x5b4 <__fp_nan>
     41e:	0e f4       	brtc	.+2      	; 0x422 <__addsf3+0x1e>
     420:	e0 95       	com	r30
     422:	e7 fb       	bst	r30, 7
     424:	c1 c0       	rjmp	.+386    	; 0x5a8 <__fp_inf>

00000426 <__addsf3x>:
     426:	e9 2f       	mov	r30, r25
     428:	e7 d0       	rcall	.+462    	; 0x5f8 <__fp_split3>
     42a:	80 f3       	brcs	.-32     	; 0x40c <__addsf3+0x8>
     42c:	ba 17       	cp	r27, r26
     42e:	62 07       	cpc	r22, r18
     430:	73 07       	cpc	r23, r19
     432:	84 07       	cpc	r24, r20
     434:	95 07       	cpc	r25, r21
     436:	18 f0       	brcs	.+6      	; 0x43e <__addsf3x+0x18>
     438:	71 f4       	brne	.+28     	; 0x456 <__addsf3x+0x30>
     43a:	9e f5       	brtc	.+102    	; 0x4a2 <__addsf3x+0x7c>
     43c:	ff c0       	rjmp	.+510    	; 0x63c <__fp_zero>
     43e:	0e f4       	brtc	.+2      	; 0x442 <__addsf3x+0x1c>
     440:	e0 95       	com	r30
     442:	0b 2e       	mov	r0, r27
     444:	ba 2f       	mov	r27, r26
     446:	a0 2d       	mov	r26, r0
     448:	0b 01       	movw	r0, r22
     44a:	b9 01       	movw	r22, r18
     44c:	90 01       	movw	r18, r0
     44e:	0c 01       	movw	r0, r24
     450:	ca 01       	movw	r24, r20
     452:	a0 01       	movw	r20, r0
     454:	11 24       	eor	r1, r1
     456:	ff 27       	eor	r31, r31
     458:	59 1b       	sub	r21, r25
     45a:	99 f0       	breq	.+38     	; 0x482 <__addsf3x+0x5c>
     45c:	59 3f       	cpi	r21, 0xF9	; 249
     45e:	50 f4       	brcc	.+20     	; 0x474 <__addsf3x+0x4e>
     460:	50 3e       	cpi	r21, 0xE0	; 224
     462:	68 f1       	brcs	.+90     	; 0x4be <__addsf3x+0x98>
     464:	1a 16       	cp	r1, r26
     466:	f0 40       	sbci	r31, 0x00	; 0
     468:	a2 2f       	mov	r26, r18
     46a:	23 2f       	mov	r18, r19
     46c:	34 2f       	mov	r19, r20
     46e:	44 27       	eor	r20, r20
     470:	58 5f       	subi	r21, 0xF8	; 248
     472:	f3 cf       	rjmp	.-26     	; 0x45a <__addsf3x+0x34>
     474:	46 95       	lsr	r20
     476:	37 95       	ror	r19
     478:	27 95       	ror	r18
     47a:	a7 95       	ror	r26
     47c:	f0 40       	sbci	r31, 0x00	; 0
     47e:	53 95       	inc	r21
     480:	c9 f7       	brne	.-14     	; 0x474 <__addsf3x+0x4e>
     482:	7e f4       	brtc	.+30     	; 0x4a2 <__addsf3x+0x7c>
     484:	1f 16       	cp	r1, r31
     486:	ba 0b       	sbc	r27, r26
     488:	62 0b       	sbc	r22, r18
     48a:	73 0b       	sbc	r23, r19
     48c:	84 0b       	sbc	r24, r20
     48e:	ba f0       	brmi	.+46     	; 0x4be <__addsf3x+0x98>
     490:	91 50       	subi	r25, 0x01	; 1
     492:	a1 f0       	breq	.+40     	; 0x4bc <__addsf3x+0x96>
     494:	ff 0f       	add	r31, r31
     496:	bb 1f       	adc	r27, r27
     498:	66 1f       	adc	r22, r22
     49a:	77 1f       	adc	r23, r23
     49c:	88 1f       	adc	r24, r24
     49e:	c2 f7       	brpl	.-16     	; 0x490 <__addsf3x+0x6a>
     4a0:	0e c0       	rjmp	.+28     	; 0x4be <__addsf3x+0x98>
     4a2:	ba 0f       	add	r27, r26
     4a4:	62 1f       	adc	r22, r18
     4a6:	73 1f       	adc	r23, r19
     4a8:	84 1f       	adc	r24, r20
     4aa:	48 f4       	brcc	.+18     	; 0x4be <__addsf3x+0x98>
     4ac:	87 95       	ror	r24
     4ae:	77 95       	ror	r23
     4b0:	67 95       	ror	r22
     4b2:	b7 95       	ror	r27
     4b4:	f7 95       	ror	r31
     4b6:	9e 3f       	cpi	r25, 0xFE	; 254
     4b8:	08 f0       	brcs	.+2      	; 0x4bc <__addsf3x+0x96>
     4ba:	b3 cf       	rjmp	.-154    	; 0x422 <__addsf3+0x1e>
     4bc:	93 95       	inc	r25
     4be:	88 0f       	add	r24, r24
     4c0:	08 f0       	brcs	.+2      	; 0x4c4 <__addsf3x+0x9e>
     4c2:	99 27       	eor	r25, r25
     4c4:	ee 0f       	add	r30, r30
     4c6:	97 95       	ror	r25
     4c8:	87 95       	ror	r24
     4ca:	08 95       	ret

000004cc <__fixsfsi>:
     4cc:	04 d0       	rcall	.+8      	; 0x4d6 <__fixunssfsi>
     4ce:	68 94       	set
     4d0:	b1 11       	cpse	r27, r1
     4d2:	b5 c0       	rjmp	.+362    	; 0x63e <__fp_szero>
     4d4:	08 95       	ret

000004d6 <__fixunssfsi>:
     4d6:	98 d0       	rcall	.+304    	; 0x608 <__fp_splitA>
     4d8:	88 f0       	brcs	.+34     	; 0x4fc <__fixunssfsi+0x26>
     4da:	9f 57       	subi	r25, 0x7F	; 127
     4dc:	90 f0       	brcs	.+36     	; 0x502 <__fixunssfsi+0x2c>
     4de:	b9 2f       	mov	r27, r25
     4e0:	99 27       	eor	r25, r25
     4e2:	b7 51       	subi	r27, 0x17	; 23
     4e4:	a0 f0       	brcs	.+40     	; 0x50e <__fixunssfsi+0x38>
     4e6:	d1 f0       	breq	.+52     	; 0x51c <__fixunssfsi+0x46>
     4e8:	66 0f       	add	r22, r22
     4ea:	77 1f       	adc	r23, r23
     4ec:	88 1f       	adc	r24, r24
     4ee:	99 1f       	adc	r25, r25
     4f0:	1a f0       	brmi	.+6      	; 0x4f8 <__fixunssfsi+0x22>
     4f2:	ba 95       	dec	r27
     4f4:	c9 f7       	brne	.-14     	; 0x4e8 <__fixunssfsi+0x12>
     4f6:	12 c0       	rjmp	.+36     	; 0x51c <__fixunssfsi+0x46>
     4f8:	b1 30       	cpi	r27, 0x01	; 1
     4fa:	81 f0       	breq	.+32     	; 0x51c <__fixunssfsi+0x46>
     4fc:	9f d0       	rcall	.+318    	; 0x63c <__fp_zero>
     4fe:	b1 e0       	ldi	r27, 0x01	; 1
     500:	08 95       	ret
     502:	9c c0       	rjmp	.+312    	; 0x63c <__fp_zero>
     504:	67 2f       	mov	r22, r23
     506:	78 2f       	mov	r23, r24
     508:	88 27       	eor	r24, r24
     50a:	b8 5f       	subi	r27, 0xF8	; 248
     50c:	39 f0       	breq	.+14     	; 0x51c <__fixunssfsi+0x46>
     50e:	b9 3f       	cpi	r27, 0xF9	; 249
     510:	cc f3       	brlt	.-14     	; 0x504 <__fixunssfsi+0x2e>
     512:	86 95       	lsr	r24
     514:	77 95       	ror	r23
     516:	67 95       	ror	r22
     518:	b3 95       	inc	r27
     51a:	d9 f7       	brne	.-10     	; 0x512 <__fixunssfsi+0x3c>
     51c:	3e f4       	brtc	.+14     	; 0x52c <__fixunssfsi+0x56>
     51e:	90 95       	com	r25
     520:	80 95       	com	r24
     522:	70 95       	com	r23
     524:	61 95       	neg	r22
     526:	7f 4f       	sbci	r23, 0xFF	; 255
     528:	8f 4f       	sbci	r24, 0xFF	; 255
     52a:	9f 4f       	sbci	r25, 0xFF	; 255
     52c:	08 95       	ret

0000052e <__floatunsisf>:
     52e:	e8 94       	clt
     530:	09 c0       	rjmp	.+18     	; 0x544 <__floatsisf+0x12>

00000532 <__floatsisf>:
     532:	97 fb       	bst	r25, 7
     534:	3e f4       	brtc	.+14     	; 0x544 <__floatsisf+0x12>
     536:	90 95       	com	r25
     538:	80 95       	com	r24
     53a:	70 95       	com	r23
     53c:	61 95       	neg	r22
     53e:	7f 4f       	sbci	r23, 0xFF	; 255
     540:	8f 4f       	sbci	r24, 0xFF	; 255
     542:	9f 4f       	sbci	r25, 0xFF	; 255
     544:	99 23       	and	r25, r25
     546:	a9 f0       	breq	.+42     	; 0x572 <__floatsisf+0x40>
     548:	f9 2f       	mov	r31, r25
     54a:	96 e9       	ldi	r25, 0x96	; 150
     54c:	bb 27       	eor	r27, r27
     54e:	93 95       	inc	r25
     550:	f6 95       	lsr	r31
     552:	87 95       	ror	r24
     554:	77 95       	ror	r23
     556:	67 95       	ror	r22
     558:	b7 95       	ror	r27
     55a:	f1 11       	cpse	r31, r1
     55c:	f8 cf       	rjmp	.-16     	; 0x54e <__floatsisf+0x1c>
     55e:	fa f4       	brpl	.+62     	; 0x59e <__floatsisf+0x6c>
     560:	bb 0f       	add	r27, r27
     562:	11 f4       	brne	.+4      	; 0x568 <__floatsisf+0x36>
     564:	60 ff       	sbrs	r22, 0
     566:	1b c0       	rjmp	.+54     	; 0x59e <__floatsisf+0x6c>
     568:	6f 5f       	subi	r22, 0xFF	; 255
     56a:	7f 4f       	sbci	r23, 0xFF	; 255
     56c:	8f 4f       	sbci	r24, 0xFF	; 255
     56e:	9f 4f       	sbci	r25, 0xFF	; 255
     570:	16 c0       	rjmp	.+44     	; 0x59e <__floatsisf+0x6c>
     572:	88 23       	and	r24, r24
     574:	11 f0       	breq	.+4      	; 0x57a <__floatsisf+0x48>
     576:	96 e9       	ldi	r25, 0x96	; 150
     578:	11 c0       	rjmp	.+34     	; 0x59c <__floatsisf+0x6a>
     57a:	77 23       	and	r23, r23
     57c:	21 f0       	breq	.+8      	; 0x586 <__floatsisf+0x54>
     57e:	9e e8       	ldi	r25, 0x8E	; 142
     580:	87 2f       	mov	r24, r23
     582:	76 2f       	mov	r23, r22
     584:	05 c0       	rjmp	.+10     	; 0x590 <__floatsisf+0x5e>
     586:	66 23       	and	r22, r22
     588:	71 f0       	breq	.+28     	; 0x5a6 <__floatsisf+0x74>
     58a:	96 e8       	ldi	r25, 0x86	; 134
     58c:	86 2f       	mov	r24, r22
     58e:	70 e0       	ldi	r23, 0x00	; 0
     590:	60 e0       	ldi	r22, 0x00	; 0
     592:	2a f0       	brmi	.+10     	; 0x59e <__floatsisf+0x6c>
     594:	9a 95       	dec	r25
     596:	66 0f       	add	r22, r22
     598:	77 1f       	adc	r23, r23
     59a:	88 1f       	adc	r24, r24
     59c:	da f7       	brpl	.-10     	; 0x594 <__floatsisf+0x62>
     59e:	88 0f       	add	r24, r24
     5a0:	96 95       	lsr	r25
     5a2:	87 95       	ror	r24
     5a4:	97 f9       	bld	r25, 7
     5a6:	08 95       	ret

000005a8 <__fp_inf>:
     5a8:	97 f9       	bld	r25, 7
     5aa:	9f 67       	ori	r25, 0x7F	; 127
     5ac:	80 e8       	ldi	r24, 0x80	; 128
     5ae:	70 e0       	ldi	r23, 0x00	; 0
     5b0:	60 e0       	ldi	r22, 0x00	; 0
     5b2:	08 95       	ret

000005b4 <__fp_nan>:
     5b4:	9f ef       	ldi	r25, 0xFF	; 255
     5b6:	80 ec       	ldi	r24, 0xC0	; 192
     5b8:	08 95       	ret

000005ba <__fp_pscA>:
     5ba:	00 24       	eor	r0, r0
     5bc:	0a 94       	dec	r0
     5be:	16 16       	cp	r1, r22
     5c0:	17 06       	cpc	r1, r23
     5c2:	18 06       	cpc	r1, r24
     5c4:	09 06       	cpc	r0, r25
     5c6:	08 95       	ret

000005c8 <__fp_pscB>:
     5c8:	00 24       	eor	r0, r0
     5ca:	0a 94       	dec	r0
     5cc:	12 16       	cp	r1, r18
     5ce:	13 06       	cpc	r1, r19
     5d0:	14 06       	cpc	r1, r20
     5d2:	05 06       	cpc	r0, r21
     5d4:	08 95       	ret

000005d6 <__fp_round>:
     5d6:	09 2e       	mov	r0, r25
     5d8:	03 94       	inc	r0
     5da:	00 0c       	add	r0, r0
     5dc:	11 f4       	brne	.+4      	; 0x5e2 <__fp_round+0xc>
     5de:	88 23       	and	r24, r24
     5e0:	52 f0       	brmi	.+20     	; 0x5f6 <__fp_round+0x20>
     5e2:	bb 0f       	add	r27, r27
     5e4:	40 f4       	brcc	.+16     	; 0x5f6 <__fp_round+0x20>
     5e6:	bf 2b       	or	r27, r31
     5e8:	11 f4       	brne	.+4      	; 0x5ee <__fp_round+0x18>
     5ea:	60 ff       	sbrs	r22, 0
     5ec:	04 c0       	rjmp	.+8      	; 0x5f6 <__fp_round+0x20>
     5ee:	6f 5f       	subi	r22, 0xFF	; 255
     5f0:	7f 4f       	sbci	r23, 0xFF	; 255
     5f2:	8f 4f       	sbci	r24, 0xFF	; 255
     5f4:	9f 4f       	sbci	r25, 0xFF	; 255
     5f6:	08 95       	ret

000005f8 <__fp_split3>:
     5f8:	57 fd       	sbrc	r21, 7
     5fa:	90 58       	subi	r25, 0x80	; 128
     5fc:	44 0f       	add	r20, r20
     5fe:	55 1f       	adc	r21, r21
     600:	59 f0       	breq	.+22     	; 0x618 <__fp_splitA+0x10>
     602:	5f 3f       	cpi	r21, 0xFF	; 255
     604:	71 f0       	breq	.+28     	; 0x622 <__fp_splitA+0x1a>
     606:	47 95       	ror	r20

00000608 <__fp_splitA>:
     608:	88 0f       	add	r24, r24
     60a:	97 fb       	bst	r25, 7
     60c:	99 1f       	adc	r25, r25
     60e:	61 f0       	breq	.+24     	; 0x628 <__fp_splitA+0x20>
     610:	9f 3f       	cpi	r25, 0xFF	; 255
     612:	79 f0       	breq	.+30     	; 0x632 <__fp_splitA+0x2a>
     614:	87 95       	ror	r24
     616:	08 95       	ret
     618:	12 16       	cp	r1, r18
     61a:	13 06       	cpc	r1, r19
     61c:	14 06       	cpc	r1, r20
     61e:	55 1f       	adc	r21, r21
     620:	f2 cf       	rjmp	.-28     	; 0x606 <__fp_split3+0xe>
     622:	46 95       	lsr	r20
     624:	f1 df       	rcall	.-30     	; 0x608 <__fp_splitA>
     626:	08 c0       	rjmp	.+16     	; 0x638 <__fp_splitA+0x30>
     628:	16 16       	cp	r1, r22
     62a:	17 06       	cpc	r1, r23
     62c:	18 06       	cpc	r1, r24
     62e:	99 1f       	adc	r25, r25
     630:	f1 cf       	rjmp	.-30     	; 0x614 <__fp_splitA+0xc>
     632:	86 95       	lsr	r24
     634:	71 05       	cpc	r23, r1
     636:	61 05       	cpc	r22, r1
     638:	08 94       	sec
     63a:	08 95       	ret

0000063c <__fp_zero>:
     63c:	e8 94       	clt

0000063e <__fp_szero>:
     63e:	bb 27       	eor	r27, r27
     640:	66 27       	eor	r22, r22
     642:	77 27       	eor	r23, r23
     644:	cb 01       	movw	r24, r22
     646:	97 f9       	bld	r25, 7
     648:	08 95       	ret

0000064a <__mulsf3>:
     64a:	0b d0       	rcall	.+22     	; 0x662 <__mulsf3x>
     64c:	c4 cf       	rjmp	.-120    	; 0x5d6 <__fp_round>
     64e:	b5 df       	rcall	.-150    	; 0x5ba <__fp_pscA>
     650:	28 f0       	brcs	.+10     	; 0x65c <__mulsf3+0x12>
     652:	ba df       	rcall	.-140    	; 0x5c8 <__fp_pscB>
     654:	18 f0       	brcs	.+6      	; 0x65c <__mulsf3+0x12>
     656:	95 23       	and	r25, r21
     658:	09 f0       	breq	.+2      	; 0x65c <__mulsf3+0x12>
     65a:	a6 cf       	rjmp	.-180    	; 0x5a8 <__fp_inf>
     65c:	ab cf       	rjmp	.-170    	; 0x5b4 <__fp_nan>
     65e:	11 24       	eor	r1, r1
     660:	ee cf       	rjmp	.-36     	; 0x63e <__fp_szero>

00000662 <__mulsf3x>:
     662:	ca df       	rcall	.-108    	; 0x5f8 <__fp_split3>
     664:	a0 f3       	brcs	.-24     	; 0x64e <__mulsf3+0x4>

00000666 <__mulsf3_pse>:
     666:	95 9f       	mul	r25, r21
     668:	d1 f3       	breq	.-12     	; 0x65e <__mulsf3+0x14>
     66a:	95 0f       	add	r25, r21
     66c:	50 e0       	ldi	r21, 0x00	; 0
     66e:	55 1f       	adc	r21, r21
     670:	62 9f       	mul	r22, r18
     672:	f0 01       	movw	r30, r0
     674:	72 9f       	mul	r23, r18
     676:	bb 27       	eor	r27, r27
     678:	f0 0d       	add	r31, r0
     67a:	b1 1d       	adc	r27, r1
     67c:	63 9f       	mul	r22, r19
     67e:	aa 27       	eor	r26, r26
     680:	f0 0d       	add	r31, r0
     682:	b1 1d       	adc	r27, r1
     684:	aa 1f       	adc	r26, r26
     686:	64 9f       	mul	r22, r20
     688:	66 27       	eor	r22, r22
     68a:	b0 0d       	add	r27, r0
     68c:	a1 1d       	adc	r26, r1
     68e:	66 1f       	adc	r22, r22
     690:	82 9f       	mul	r24, r18
     692:	22 27       	eor	r18, r18
     694:	b0 0d       	add	r27, r0
     696:	a1 1d       	adc	r26, r1
     698:	62 1f       	adc	r22, r18
     69a:	73 9f       	mul	r23, r19
     69c:	b0 0d       	add	r27, r0
     69e:	a1 1d       	adc	r26, r1
     6a0:	62 1f       	adc	r22, r18
     6a2:	83 9f       	mul	r24, r19
     6a4:	a0 0d       	add	r26, r0
     6a6:	61 1d       	adc	r22, r1
     6a8:	22 1f       	adc	r18, r18
     6aa:	74 9f       	mul	r23, r20
     6ac:	33 27       	eor	r19, r19
     6ae:	a0 0d       	add	r26, r0
     6b0:	61 1d       	adc	r22, r1
     6b2:	23 1f       	adc	r18, r19
     6b4:	84 9f       	mul	r24, r20
     6b6:	60 0d       	add	r22, r0
     6b8:	21 1d       	adc	r18, r1
     6ba:	82 2f       	mov	r24, r18
     6bc:	76 2f       	mov	r23, r22
     6be:	6a 2f       	mov	r22, r26
     6c0:	11 24       	eor	r1, r1
     6c2:	9f 57       	subi	r25, 0x7F	; 127
     6c4:	50 40       	sbci	r21, 0x00	; 0
     6c6:	8a f0       	brmi	.+34     	; 0x6ea <__mulsf3_pse+0x84>
     6c8:	e1 f0       	breq	.+56     	; 0x702 <__mulsf3_pse+0x9c>
     6ca:	88 23       	and	r24, r24
     6cc:	4a f0       	brmi	.+18     	; 0x6e0 <__mulsf3_pse+0x7a>
     6ce:	ee 0f       	add	r30, r30
     6d0:	ff 1f       	adc	r31, r31
     6d2:	bb 1f       	adc	r27, r27
     6d4:	66 1f       	adc	r22, r22
     6d6:	77 1f       	adc	r23, r23
     6d8:	88 1f       	adc	r24, r24
     6da:	91 50       	subi	r25, 0x01	; 1
     6dc:	50 40       	sbci	r21, 0x00	; 0
     6de:	a9 f7       	brne	.-22     	; 0x6ca <__mulsf3_pse+0x64>
     6e0:	9e 3f       	cpi	r25, 0xFE	; 254
     6e2:	51 05       	cpc	r21, r1
     6e4:	70 f0       	brcs	.+28     	; 0x702 <__mulsf3_pse+0x9c>
     6e6:	60 cf       	rjmp	.-320    	; 0x5a8 <__fp_inf>
     6e8:	aa cf       	rjmp	.-172    	; 0x63e <__fp_szero>
     6ea:	5f 3f       	cpi	r21, 0xFF	; 255
     6ec:	ec f3       	brlt	.-6      	; 0x6e8 <__mulsf3_pse+0x82>
     6ee:	98 3e       	cpi	r25, 0xE8	; 232
     6f0:	dc f3       	brlt	.-10     	; 0x6e8 <__mulsf3_pse+0x82>
     6f2:	86 95       	lsr	r24
     6f4:	77 95       	ror	r23
     6f6:	67 95       	ror	r22
     6f8:	b7 95       	ror	r27
     6fa:	f7 95       	ror	r31
     6fc:	e7 95       	ror	r30
     6fe:	9f 5f       	subi	r25, 0xFF	; 255
     700:	c1 f7       	brne	.-16     	; 0x6f2 <__mulsf3_pse+0x8c>
     702:	fe 2b       	or	r31, r30
     704:	88 0f       	add	r24, r24
     706:	91 1d       	adc	r25, r1
     708:	96 95       	lsr	r25
     70a:	87 95       	ror	r24
     70c:	97 f9       	bld	r25, 7
     70e:	08 95       	ret

00000710 <pow>:
     710:	fa 01       	movw	r30, r20
     712:	ee 0f       	add	r30, r30
     714:	ff 1f       	adc	r31, r31
     716:	30 96       	adiw	r30, 0x00	; 0
     718:	21 05       	cpc	r18, r1
     71a:	31 05       	cpc	r19, r1
     71c:	99 f1       	breq	.+102    	; 0x784 <pow+0x74>
     71e:	61 15       	cp	r22, r1
     720:	71 05       	cpc	r23, r1
     722:	61 f4       	brne	.+24     	; 0x73c <pow+0x2c>
     724:	80 38       	cpi	r24, 0x80	; 128
     726:	bf e3       	ldi	r27, 0x3F	; 63
     728:	9b 07       	cpc	r25, r27
     72a:	49 f1       	breq	.+82     	; 0x77e <pow+0x6e>
     72c:	68 94       	set
     72e:	90 38       	cpi	r25, 0x80	; 128
     730:	81 05       	cpc	r24, r1
     732:	61 f0       	breq	.+24     	; 0x74c <pow+0x3c>
     734:	80 38       	cpi	r24, 0x80	; 128
     736:	bf ef       	ldi	r27, 0xFF	; 255
     738:	9b 07       	cpc	r25, r27
     73a:	41 f0       	breq	.+16     	; 0x74c <pow+0x3c>
     73c:	99 23       	and	r25, r25
     73e:	42 f5       	brpl	.+80     	; 0x790 <pow+0x80>
     740:	ff 3f       	cpi	r31, 0xFF	; 255
     742:	e1 05       	cpc	r30, r1
     744:	31 05       	cpc	r19, r1
     746:	21 05       	cpc	r18, r1
     748:	11 f1       	breq	.+68     	; 0x78e <pow+0x7e>
     74a:	e8 94       	clt
     74c:	08 94       	sec
     74e:	e7 95       	ror	r30
     750:	d9 01       	movw	r26, r18
     752:	aa 23       	and	r26, r26
     754:	29 f4       	brne	.+10     	; 0x760 <pow+0x50>
     756:	ab 2f       	mov	r26, r27
     758:	be 2f       	mov	r27, r30
     75a:	f8 5f       	subi	r31, 0xF8	; 248
     75c:	d0 f3       	brcs	.-12     	; 0x752 <pow+0x42>
     75e:	10 c0       	rjmp	.+32     	; 0x780 <pow+0x70>
     760:	ff 5f       	subi	r31, 0xFF	; 255
     762:	70 f4       	brcc	.+28     	; 0x780 <pow+0x70>
     764:	a6 95       	lsr	r26
     766:	e0 f7       	brcc	.-8      	; 0x760 <pow+0x50>
     768:	f7 39       	cpi	r31, 0x97	; 151
     76a:	50 f0       	brcs	.+20     	; 0x780 <pow+0x70>
     76c:	19 f0       	breq	.+6      	; 0x774 <pow+0x64>
     76e:	ff 3a       	cpi	r31, 0xAF	; 175
     770:	38 f4       	brcc	.+14     	; 0x780 <pow+0x70>
     772:	9f 77       	andi	r25, 0x7F	; 127
     774:	9f 93       	push	r25
     776:	0c d0       	rcall	.+24     	; 0x790 <pow+0x80>
     778:	0f 90       	pop	r0
     77a:	07 fc       	sbrc	r0, 7
     77c:	90 58       	subi	r25, 0x80	; 128
     77e:	08 95       	ret
     780:	3e f0       	brts	.+14     	; 0x790 <pow+0x80>
     782:	18 cf       	rjmp	.-464    	; 0x5b4 <__fp_nan>
     784:	60 e0       	ldi	r22, 0x00	; 0
     786:	70 e0       	ldi	r23, 0x00	; 0
     788:	80 e8       	ldi	r24, 0x80	; 128
     78a:	9f e3       	ldi	r25, 0x3F	; 63
     78c:	08 95       	ret
     78e:	4f e7       	ldi	r20, 0x7F	; 127
     790:	9f 77       	andi	r25, 0x7F	; 127
     792:	5f 93       	push	r21
     794:	4f 93       	push	r20
     796:	3f 93       	push	r19
     798:	2f 93       	push	r18
     79a:	9e d0       	rcall	.+316    	; 0x8d8 <log>
     79c:	2f 91       	pop	r18
     79e:	3f 91       	pop	r19
     7a0:	4f 91       	pop	r20
     7a2:	5f 91       	pop	r21
     7a4:	52 df       	rcall	.-348    	; 0x64a <__mulsf3>
     7a6:	05 c0       	rjmp	.+10     	; 0x7b2 <exp>
     7a8:	19 f4       	brne	.+6      	; 0x7b0 <pow+0xa0>
     7aa:	0e f0       	brts	.+2      	; 0x7ae <pow+0x9e>
     7ac:	fd ce       	rjmp	.-518    	; 0x5a8 <__fp_inf>
     7ae:	46 cf       	rjmp	.-372    	; 0x63c <__fp_zero>
     7b0:	01 cf       	rjmp	.-510    	; 0x5b4 <__fp_nan>

000007b2 <exp>:
     7b2:	2a df       	rcall	.-428    	; 0x608 <__fp_splitA>
     7b4:	c8 f3       	brcs	.-14     	; 0x7a8 <pow+0x98>
     7b6:	96 38       	cpi	r25, 0x86	; 134
     7b8:	c0 f7       	brcc	.-16     	; 0x7aa <pow+0x9a>
     7ba:	07 f8       	bld	r0, 7
     7bc:	0f 92       	push	r0
     7be:	e8 94       	clt
     7c0:	2b e3       	ldi	r18, 0x3B	; 59
     7c2:	3a ea       	ldi	r19, 0xAA	; 170
     7c4:	48 eb       	ldi	r20, 0xB8	; 184
     7c6:	5f e7       	ldi	r21, 0x7F	; 127
     7c8:	4e df       	rcall	.-356    	; 0x666 <__mulsf3_pse>
     7ca:	0f 92       	push	r0
     7cc:	0f 92       	push	r0
     7ce:	0f 92       	push	r0
     7d0:	4d b7       	in	r20, 0x3d	; 61
     7d2:	5e b7       	in	r21, 0x3e	; 62
     7d4:	0f 92       	push	r0
     7d6:	c0 d0       	rcall	.+384    	; 0x958 <modf>
     7d8:	ec e8       	ldi	r30, 0x8C	; 140
     7da:	f0 e0       	ldi	r31, 0x00	; 0
     7dc:	16 d0       	rcall	.+44     	; 0x80a <__fp_powser>
     7de:	4f 91       	pop	r20
     7e0:	5f 91       	pop	r21
     7e2:	ef 91       	pop	r30
     7e4:	ff 91       	pop	r31
     7e6:	e5 95       	asr	r30
     7e8:	ee 1f       	adc	r30, r30
     7ea:	ff 1f       	adc	r31, r31
     7ec:	49 f0       	breq	.+18     	; 0x800 <exp+0x4e>
     7ee:	fe 57       	subi	r31, 0x7E	; 126
     7f0:	e0 68       	ori	r30, 0x80	; 128
     7f2:	44 27       	eor	r20, r20
     7f4:	ee 0f       	add	r30, r30
     7f6:	44 1f       	adc	r20, r20
     7f8:	fa 95       	dec	r31
     7fa:	e1 f7       	brne	.-8      	; 0x7f4 <exp+0x42>
     7fc:	41 95       	neg	r20
     7fe:	55 0b       	sbc	r21, r21
     800:	32 d0       	rcall	.+100    	; 0x866 <ldexp>
     802:	0f 90       	pop	r0
     804:	07 fe       	sbrs	r0, 7
     806:	26 c0       	rjmp	.+76     	; 0x854 <inverse>
     808:	08 95       	ret

0000080a <__fp_powser>:
     80a:	df 93       	push	r29
     80c:	cf 93       	push	r28
     80e:	1f 93       	push	r17
     810:	0f 93       	push	r16
     812:	ff 92       	push	r15
     814:	ef 92       	push	r14
     816:	df 92       	push	r13
     818:	7b 01       	movw	r14, r22
     81a:	8c 01       	movw	r16, r24
     81c:	68 94       	set
     81e:	05 c0       	rjmp	.+10     	; 0x82a <__fp_powser+0x20>
     820:	da 2e       	mov	r13, r26
     822:	ef 01       	movw	r28, r30
     824:	1e df       	rcall	.-452    	; 0x662 <__mulsf3x>
     826:	fe 01       	movw	r30, r28
     828:	e8 94       	clt
     82a:	a5 91       	lpm	r26, Z+
     82c:	25 91       	lpm	r18, Z+
     82e:	35 91       	lpm	r19, Z+
     830:	45 91       	lpm	r20, Z+
     832:	55 91       	lpm	r21, Z+
     834:	ae f3       	brts	.-22     	; 0x820 <__fp_powser+0x16>
     836:	ef 01       	movw	r28, r30
     838:	f6 dd       	rcall	.-1044   	; 0x426 <__addsf3x>
     83a:	fe 01       	movw	r30, r28
     83c:	97 01       	movw	r18, r14
     83e:	a8 01       	movw	r20, r16
     840:	da 94       	dec	r13
     842:	79 f7       	brne	.-34     	; 0x822 <__fp_powser+0x18>
     844:	df 90       	pop	r13
     846:	ef 90       	pop	r14
     848:	ff 90       	pop	r15
     84a:	0f 91       	pop	r16
     84c:	1f 91       	pop	r17
     84e:	cf 91       	pop	r28
     850:	df 91       	pop	r29
     852:	08 95       	ret

00000854 <inverse>:
     854:	9b 01       	movw	r18, r22
     856:	ac 01       	movw	r20, r24
     858:	60 e0       	ldi	r22, 0x00	; 0
     85a:	70 e0       	ldi	r23, 0x00	; 0
     85c:	80 e8       	ldi	r24, 0x80	; 128
     85e:	9f e3       	ldi	r25, 0x3F	; 63
     860:	ae c0       	rjmp	.+348    	; 0x9be <__divsf3>
     862:	a2 ce       	rjmp	.-700    	; 0x5a8 <__fp_inf>
     864:	14 c1       	rjmp	.+552    	; 0xa8e <__fp_mpack>

00000866 <ldexp>:
     866:	d0 de       	rcall	.-608    	; 0x608 <__fp_splitA>
     868:	e8 f3       	brcs	.-6      	; 0x864 <inverse+0x10>
     86a:	99 23       	and	r25, r25
     86c:	d9 f3       	breq	.-10     	; 0x864 <inverse+0x10>
     86e:	94 0f       	add	r25, r20
     870:	51 1d       	adc	r21, r1
     872:	bb f3       	brvs	.-18     	; 0x862 <inverse+0xe>
     874:	91 50       	subi	r25, 0x01	; 1
     876:	50 40       	sbci	r21, 0x00	; 0
     878:	94 f0       	brlt	.+36     	; 0x89e <ldexp+0x38>
     87a:	59 f0       	breq	.+22     	; 0x892 <ldexp+0x2c>
     87c:	88 23       	and	r24, r24
     87e:	32 f0       	brmi	.+12     	; 0x88c <ldexp+0x26>
     880:	66 0f       	add	r22, r22
     882:	77 1f       	adc	r23, r23
     884:	88 1f       	adc	r24, r24
     886:	91 50       	subi	r25, 0x01	; 1
     888:	50 40       	sbci	r21, 0x00	; 0
     88a:	c1 f7       	brne	.-16     	; 0x87c <ldexp+0x16>
     88c:	9e 3f       	cpi	r25, 0xFE	; 254
     88e:	51 05       	cpc	r21, r1
     890:	44 f7       	brge	.-48     	; 0x862 <inverse+0xe>
     892:	88 0f       	add	r24, r24
     894:	91 1d       	adc	r25, r1
     896:	96 95       	lsr	r25
     898:	87 95       	ror	r24
     89a:	97 f9       	bld	r25, 7
     89c:	08 95       	ret
     89e:	5f 3f       	cpi	r21, 0xFF	; 255
     8a0:	ac f0       	brlt	.+42     	; 0x8cc <ldexp+0x66>
     8a2:	98 3e       	cpi	r25, 0xE8	; 232
     8a4:	9c f0       	brlt	.+38     	; 0x8cc <ldexp+0x66>
     8a6:	bb 27       	eor	r27, r27
     8a8:	86 95       	lsr	r24
     8aa:	77 95       	ror	r23
     8ac:	67 95       	ror	r22
     8ae:	b7 95       	ror	r27
     8b0:	08 f4       	brcc	.+2      	; 0x8b4 <ldexp+0x4e>
     8b2:	b1 60       	ori	r27, 0x01	; 1
     8b4:	93 95       	inc	r25
     8b6:	c1 f7       	brne	.-16     	; 0x8a8 <ldexp+0x42>
     8b8:	bb 0f       	add	r27, r27
     8ba:	58 f7       	brcc	.-42     	; 0x892 <ldexp+0x2c>
     8bc:	11 f4       	brne	.+4      	; 0x8c2 <ldexp+0x5c>
     8be:	60 ff       	sbrs	r22, 0
     8c0:	e8 cf       	rjmp	.-48     	; 0x892 <ldexp+0x2c>
     8c2:	6f 5f       	subi	r22, 0xFF	; 255
     8c4:	7f 4f       	sbci	r23, 0xFF	; 255
     8c6:	8f 4f       	sbci	r24, 0xFF	; 255
     8c8:	9f 4f       	sbci	r25, 0xFF	; 255
     8ca:	e3 cf       	rjmp	.-58     	; 0x892 <ldexp+0x2c>
     8cc:	b8 ce       	rjmp	.-656    	; 0x63e <__fp_szero>
     8ce:	0e f0       	brts	.+2      	; 0x8d2 <ldexp+0x6c>
     8d0:	de c0       	rjmp	.+444    	; 0xa8e <__fp_mpack>
     8d2:	70 ce       	rjmp	.-800    	; 0x5b4 <__fp_nan>
     8d4:	68 94       	set
     8d6:	68 ce       	rjmp	.-816    	; 0x5a8 <__fp_inf>

000008d8 <log>:
     8d8:	97 de       	rcall	.-722    	; 0x608 <__fp_splitA>
     8da:	c8 f3       	brcs	.-14     	; 0x8ce <ldexp+0x68>
     8dc:	99 23       	and	r25, r25
     8de:	d1 f3       	breq	.-12     	; 0x8d4 <ldexp+0x6e>
     8e0:	c6 f3       	brts	.-16     	; 0x8d2 <ldexp+0x6c>
     8e2:	df 93       	push	r29
     8e4:	cf 93       	push	r28
     8e6:	1f 93       	push	r17
     8e8:	0f 93       	push	r16
     8ea:	ff 92       	push	r15
     8ec:	c9 2f       	mov	r28, r25
     8ee:	dd 27       	eor	r29, r29
     8f0:	88 23       	and	r24, r24
     8f2:	2a f0       	brmi	.+10     	; 0x8fe <log+0x26>
     8f4:	21 97       	sbiw	r28, 0x01	; 1
     8f6:	66 0f       	add	r22, r22
     8f8:	77 1f       	adc	r23, r23
     8fa:	88 1f       	adc	r24, r24
     8fc:	da f7       	brpl	.-10     	; 0x8f4 <log+0x1c>
     8fe:	20 e0       	ldi	r18, 0x00	; 0
     900:	30 e0       	ldi	r19, 0x00	; 0
     902:	40 e8       	ldi	r20, 0x80	; 128
     904:	5f eb       	ldi	r21, 0xBF	; 191
     906:	9f e3       	ldi	r25, 0x3F	; 63
     908:	88 39       	cpi	r24, 0x98	; 152
     90a:	20 f0       	brcs	.+8      	; 0x914 <log+0x3c>
     90c:	80 3e       	cpi	r24, 0xE0	; 224
     90e:	30 f0       	brcs	.+12     	; 0x91c <log+0x44>
     910:	21 96       	adiw	r28, 0x01	; 1
     912:	8f 77       	andi	r24, 0x7F	; 127
     914:	77 dd       	rcall	.-1298   	; 0x404 <__addsf3>
     916:	e4 eb       	ldi	r30, 0xB4	; 180
     918:	f0 e0       	ldi	r31, 0x00	; 0
     91a:	03 c0       	rjmp	.+6      	; 0x922 <log+0x4a>
     91c:	73 dd       	rcall	.-1306   	; 0x404 <__addsf3>
     91e:	e1 ee       	ldi	r30, 0xE1	; 225
     920:	f0 e0       	ldi	r31, 0x00	; 0
     922:	73 df       	rcall	.-282    	; 0x80a <__fp_powser>
     924:	8b 01       	movw	r16, r22
     926:	be 01       	movw	r22, r28
     928:	ec 01       	movw	r28, r24
     92a:	fb 2e       	mov	r15, r27
     92c:	6f 57       	subi	r22, 0x7F	; 127
     92e:	71 09       	sbc	r23, r1
     930:	75 95       	asr	r23
     932:	77 1f       	adc	r23, r23
     934:	88 0b       	sbc	r24, r24
     936:	99 0b       	sbc	r25, r25
     938:	fc dd       	rcall	.-1032   	; 0x532 <__floatsisf>
     93a:	28 e1       	ldi	r18, 0x18	; 24
     93c:	32 e7       	ldi	r19, 0x72	; 114
     93e:	41 e3       	ldi	r20, 0x31	; 49
     940:	5f e3       	ldi	r21, 0x3F	; 63
     942:	8f de       	rcall	.-738    	; 0x662 <__mulsf3x>
     944:	af 2d       	mov	r26, r15
     946:	98 01       	movw	r18, r16
     948:	ae 01       	movw	r20, r28
     94a:	ff 90       	pop	r15
     94c:	0f 91       	pop	r16
     94e:	1f 91       	pop	r17
     950:	cf 91       	pop	r28
     952:	df 91       	pop	r29
     954:	68 dd       	rcall	.-1328   	; 0x426 <__addsf3x>
     956:	3f ce       	rjmp	.-898    	; 0x5d6 <__fp_round>

00000958 <modf>:
     958:	fa 01       	movw	r30, r20
     95a:	dc 01       	movw	r26, r24
     95c:	aa 0f       	add	r26, r26
     95e:	bb 1f       	adc	r27, r27
     960:	9b 01       	movw	r18, r22
     962:	ac 01       	movw	r20, r24
     964:	bf 57       	subi	r27, 0x7F	; 127
     966:	28 f4       	brcc	.+10     	; 0x972 <modf+0x1a>
     968:	22 27       	eor	r18, r18
     96a:	33 27       	eor	r19, r19
     96c:	44 27       	eor	r20, r20
     96e:	50 78       	andi	r21, 0x80	; 128
     970:	1f c0       	rjmp	.+62     	; 0x9b0 <modf+0x58>
     972:	b7 51       	subi	r27, 0x17	; 23
     974:	88 f4       	brcc	.+34     	; 0x998 <modf+0x40>
     976:	ab 2f       	mov	r26, r27
     978:	00 24       	eor	r0, r0
     97a:	46 95       	lsr	r20
     97c:	37 95       	ror	r19
     97e:	27 95       	ror	r18
     980:	01 1c       	adc	r0, r1
     982:	a3 95       	inc	r26
     984:	d2 f3       	brmi	.-12     	; 0x97a <modf+0x22>
     986:	00 20       	and	r0, r0
     988:	69 f0       	breq	.+26     	; 0x9a4 <modf+0x4c>
     98a:	22 0f       	add	r18, r18
     98c:	33 1f       	adc	r19, r19
     98e:	44 1f       	adc	r20, r20
     990:	b3 95       	inc	r27
     992:	da f3       	brmi	.-10     	; 0x98a <modf+0x32>
     994:	0d d0       	rcall	.+26     	; 0x9b0 <modf+0x58>
     996:	35 cd       	rjmp	.-1430   	; 0x402 <__subsf3>
     998:	61 30       	cpi	r22, 0x01	; 1
     99a:	71 05       	cpc	r23, r1
     99c:	a0 e8       	ldi	r26, 0x80	; 128
     99e:	8a 07       	cpc	r24, r26
     9a0:	b9 46       	sbci	r27, 0x69	; 105
     9a2:	30 f4       	brcc	.+12     	; 0x9b0 <modf+0x58>
     9a4:	9b 01       	movw	r18, r22
     9a6:	ac 01       	movw	r20, r24
     9a8:	66 27       	eor	r22, r22
     9aa:	77 27       	eor	r23, r23
     9ac:	88 27       	eor	r24, r24
     9ae:	90 78       	andi	r25, 0x80	; 128
     9b0:	30 96       	adiw	r30, 0x00	; 0
     9b2:	21 f0       	breq	.+8      	; 0x9bc <modf+0x64>
     9b4:	20 83       	st	Z, r18
     9b6:	31 83       	std	Z+1, r19	; 0x01
     9b8:	42 83       	std	Z+2, r20	; 0x02
     9ba:	53 83       	std	Z+3, r21	; 0x03
     9bc:	08 95       	ret

000009be <__divsf3>:
     9be:	0c d0       	rcall	.+24     	; 0x9d8 <__divsf3x>
     9c0:	0a ce       	rjmp	.-1004   	; 0x5d6 <__fp_round>
     9c2:	02 de       	rcall	.-1020   	; 0x5c8 <__fp_pscB>
     9c4:	40 f0       	brcs	.+16     	; 0x9d6 <__divsf3+0x18>
     9c6:	f9 dd       	rcall	.-1038   	; 0x5ba <__fp_pscA>
     9c8:	30 f0       	brcs	.+12     	; 0x9d6 <__divsf3+0x18>
     9ca:	21 f4       	brne	.+8      	; 0x9d4 <__divsf3+0x16>
     9cc:	5f 3f       	cpi	r21, 0xFF	; 255
     9ce:	19 f0       	breq	.+6      	; 0x9d6 <__divsf3+0x18>
     9d0:	eb cd       	rjmp	.-1066   	; 0x5a8 <__fp_inf>
     9d2:	51 11       	cpse	r21, r1
     9d4:	34 ce       	rjmp	.-920    	; 0x63e <__fp_szero>
     9d6:	ee cd       	rjmp	.-1060   	; 0x5b4 <__fp_nan>

000009d8 <__divsf3x>:
     9d8:	0f de       	rcall	.-994    	; 0x5f8 <__fp_split3>
     9da:	98 f3       	brcs	.-26     	; 0x9c2 <__divsf3+0x4>

000009dc <__divsf3_pse>:
     9dc:	99 23       	and	r25, r25
     9de:	c9 f3       	breq	.-14     	; 0x9d2 <__divsf3+0x14>
     9e0:	55 23       	and	r21, r21
     9e2:	b1 f3       	breq	.-20     	; 0x9d0 <__divsf3+0x12>
     9e4:	95 1b       	sub	r25, r21
     9e6:	55 0b       	sbc	r21, r21
     9e8:	bb 27       	eor	r27, r27
     9ea:	aa 27       	eor	r26, r26
     9ec:	62 17       	cp	r22, r18
     9ee:	73 07       	cpc	r23, r19
     9f0:	84 07       	cpc	r24, r20
     9f2:	38 f0       	brcs	.+14     	; 0xa02 <__divsf3_pse+0x26>
     9f4:	9f 5f       	subi	r25, 0xFF	; 255
     9f6:	5f 4f       	sbci	r21, 0xFF	; 255
     9f8:	22 0f       	add	r18, r18
     9fa:	33 1f       	adc	r19, r19
     9fc:	44 1f       	adc	r20, r20
     9fe:	aa 1f       	adc	r26, r26
     a00:	a9 f3       	breq	.-22     	; 0x9ec <__divsf3_pse+0x10>
     a02:	33 d0       	rcall	.+102    	; 0xa6a <__divsf3_pse+0x8e>
     a04:	0e 2e       	mov	r0, r30
     a06:	3a f0       	brmi	.+14     	; 0xa16 <__divsf3_pse+0x3a>
     a08:	e0 e8       	ldi	r30, 0x80	; 128
     a0a:	30 d0       	rcall	.+96     	; 0xa6c <__divsf3_pse+0x90>
     a0c:	91 50       	subi	r25, 0x01	; 1
     a0e:	50 40       	sbci	r21, 0x00	; 0
     a10:	e6 95       	lsr	r30
     a12:	00 1c       	adc	r0, r0
     a14:	ca f7       	brpl	.-14     	; 0xa08 <__divsf3_pse+0x2c>
     a16:	29 d0       	rcall	.+82     	; 0xa6a <__divsf3_pse+0x8e>
     a18:	fe 2f       	mov	r31, r30
     a1a:	27 d0       	rcall	.+78     	; 0xa6a <__divsf3_pse+0x8e>
     a1c:	66 0f       	add	r22, r22
     a1e:	77 1f       	adc	r23, r23
     a20:	88 1f       	adc	r24, r24
     a22:	bb 1f       	adc	r27, r27
     a24:	26 17       	cp	r18, r22
     a26:	37 07       	cpc	r19, r23
     a28:	48 07       	cpc	r20, r24
     a2a:	ab 07       	cpc	r26, r27
     a2c:	b0 e8       	ldi	r27, 0x80	; 128
     a2e:	09 f0       	breq	.+2      	; 0xa32 <__divsf3_pse+0x56>
     a30:	bb 0b       	sbc	r27, r27
     a32:	80 2d       	mov	r24, r0
     a34:	bf 01       	movw	r22, r30
     a36:	ff 27       	eor	r31, r31
     a38:	93 58       	subi	r25, 0x83	; 131
     a3a:	5f 4f       	sbci	r21, 0xFF	; 255
     a3c:	2a f0       	brmi	.+10     	; 0xa48 <__divsf3_pse+0x6c>
     a3e:	9e 3f       	cpi	r25, 0xFE	; 254
     a40:	51 05       	cpc	r21, r1
     a42:	68 f0       	brcs	.+26     	; 0xa5e <__divsf3_pse+0x82>
     a44:	b1 cd       	rjmp	.-1182   	; 0x5a8 <__fp_inf>
     a46:	fb cd       	rjmp	.-1034   	; 0x63e <__fp_szero>
     a48:	5f 3f       	cpi	r21, 0xFF	; 255
     a4a:	ec f3       	brlt	.-6      	; 0xa46 <__divsf3_pse+0x6a>
     a4c:	98 3e       	cpi	r25, 0xE8	; 232
     a4e:	dc f3       	brlt	.-10     	; 0xa46 <__divsf3_pse+0x6a>
     a50:	86 95       	lsr	r24
     a52:	77 95       	ror	r23
     a54:	67 95       	ror	r22
     a56:	b7 95       	ror	r27
     a58:	f7 95       	ror	r31
     a5a:	9f 5f       	subi	r25, 0xFF	; 255
     a5c:	c9 f7       	brne	.-14     	; 0xa50 <__divsf3_pse+0x74>
     a5e:	88 0f       	add	r24, r24
     a60:	91 1d       	adc	r25, r1
     a62:	96 95       	lsr	r25
     a64:	87 95       	ror	r24
     a66:	97 f9       	bld	r25, 7
     a68:	08 95       	ret
     a6a:	e1 e0       	ldi	r30, 0x01	; 1
     a6c:	66 0f       	add	r22, r22
     a6e:	77 1f       	adc	r23, r23
     a70:	88 1f       	adc	r24, r24
     a72:	bb 1f       	adc	r27, r27
     a74:	62 17       	cp	r22, r18
     a76:	73 07       	cpc	r23, r19
     a78:	84 07       	cpc	r24, r20
     a7a:	ba 07       	cpc	r27, r26
     a7c:	20 f0       	brcs	.+8      	; 0xa86 <__divsf3_pse+0xaa>
     a7e:	62 1b       	sub	r22, r18
     a80:	73 0b       	sbc	r23, r19
     a82:	84 0b       	sbc	r24, r20
     a84:	ba 0b       	sbc	r27, r26
     a86:	ee 1f       	adc	r30, r30
     a88:	88 f7       	brcc	.-30     	; 0xa6c <__divsf3_pse+0x90>
     a8a:	e0 95       	com	r30
     a8c:	08 95       	ret

00000a8e <__fp_mpack>:
     a8e:	9f 3f       	cpi	r25, 0xFF	; 255
     a90:	31 f0       	breq	.+12     	; 0xa9e <__fp_mpack_finite+0xc>

00000a92 <__fp_mpack_finite>:
     a92:	91 50       	subi	r25, 0x01	; 1
     a94:	20 f4       	brcc	.+8      	; 0xa9e <__fp_mpack_finite+0xc>
     a96:	87 95       	ror	r24
     a98:	77 95       	ror	r23
     a9a:	67 95       	ror	r22
     a9c:	b7 95       	ror	r27
     a9e:	88 0f       	add	r24, r24
     aa0:	91 1d       	adc	r25, r1
     aa2:	96 95       	lsr	r25
     aa4:	87 95       	ror	r24
     aa6:	97 f9       	bld	r25, 7
     aa8:	08 95       	ret

00000aaa <__divmodhi4>:
     aaa:	97 fb       	bst	r25, 7
     aac:	07 2e       	mov	r0, r23
     aae:	16 f4       	brtc	.+4      	; 0xab4 <__divmodhi4+0xa>
     ab0:	00 94       	com	r0
     ab2:	06 d0       	rcall	.+12     	; 0xac0 <__divmodhi4_neg1>
     ab4:	77 fd       	sbrc	r23, 7
     ab6:	08 d0       	rcall	.+16     	; 0xac8 <__divmodhi4_neg2>
     ab8:	0b d0       	rcall	.+22     	; 0xad0 <__udivmodhi4>
     aba:	07 fc       	sbrc	r0, 7
     abc:	05 d0       	rcall	.+10     	; 0xac8 <__divmodhi4_neg2>
     abe:	3e f4       	brtc	.+14     	; 0xace <__divmodhi4_exit>

00000ac0 <__divmodhi4_neg1>:
     ac0:	90 95       	com	r25
     ac2:	81 95       	neg	r24
     ac4:	9f 4f       	sbci	r25, 0xFF	; 255
     ac6:	08 95       	ret

00000ac8 <__divmodhi4_neg2>:
     ac8:	70 95       	com	r23
     aca:	61 95       	neg	r22
     acc:	7f 4f       	sbci	r23, 0xFF	; 255

00000ace <__divmodhi4_exit>:
     ace:	08 95       	ret

00000ad0 <__udivmodhi4>:
     ad0:	aa 1b       	sub	r26, r26
     ad2:	bb 1b       	sub	r27, r27
     ad4:	51 e1       	ldi	r21, 0x11	; 17
     ad6:	07 c0       	rjmp	.+14     	; 0xae6 <__udivmodhi4_ep>

00000ad8 <__udivmodhi4_loop>:
     ad8:	aa 1f       	adc	r26, r26
     ada:	bb 1f       	adc	r27, r27
     adc:	a6 17       	cp	r26, r22
     ade:	b7 07       	cpc	r27, r23
     ae0:	10 f0       	brcs	.+4      	; 0xae6 <__udivmodhi4_ep>
     ae2:	a6 1b       	sub	r26, r22
     ae4:	b7 0b       	sbc	r27, r23

00000ae6 <__udivmodhi4_ep>:
     ae6:	88 1f       	adc	r24, r24
     ae8:	99 1f       	adc	r25, r25
     aea:	5a 95       	dec	r21
     aec:	a9 f7       	brne	.-22     	; 0xad8 <__udivmodhi4_loop>
     aee:	80 95       	com	r24
     af0:	90 95       	com	r25
     af2:	bc 01       	movw	r22, r24
     af4:	cd 01       	movw	r24, r26
     af6:	08 95       	ret

00000af8 <sprintf>:
     af8:	0f 93       	push	r16
     afa:	1f 93       	push	r17
     afc:	cf 93       	push	r28
     afe:	df 93       	push	r29
     b00:	cd b7       	in	r28, 0x3d	; 61
     b02:	de b7       	in	r29, 0x3e	; 62
     b04:	2e 97       	sbiw	r28, 0x0e	; 14
     b06:	0f b6       	in	r0, 0x3f	; 63
     b08:	f8 94       	cli
     b0a:	de bf       	out	0x3e, r29	; 62
     b0c:	0f be       	out	0x3f, r0	; 63
     b0e:	cd bf       	out	0x3d, r28	; 61
     b10:	0d 89       	ldd	r16, Y+21	; 0x15
     b12:	1e 89       	ldd	r17, Y+22	; 0x16
     b14:	86 e0       	ldi	r24, 0x06	; 6
     b16:	8c 83       	std	Y+4, r24	; 0x04
     b18:	1a 83       	std	Y+2, r17	; 0x02
     b1a:	09 83       	std	Y+1, r16	; 0x01
     b1c:	8f ef       	ldi	r24, 0xFF	; 255
     b1e:	9f e7       	ldi	r25, 0x7F	; 127
     b20:	9e 83       	std	Y+6, r25	; 0x06
     b22:	8d 83       	std	Y+5, r24	; 0x05
     b24:	ae 01       	movw	r20, r28
     b26:	47 5e       	subi	r20, 0xE7	; 231
     b28:	5f 4f       	sbci	r21, 0xFF	; 255
     b2a:	6f 89       	ldd	r22, Y+23	; 0x17
     b2c:	78 8d       	ldd	r23, Y+24	; 0x18
     b2e:	ce 01       	movw	r24, r28
     b30:	01 96       	adiw	r24, 0x01	; 1
     b32:	11 d0       	rcall	.+34     	; 0xb56 <vfprintf>
     b34:	2f 81       	ldd	r18, Y+7	; 0x07
     b36:	38 85       	ldd	r19, Y+8	; 0x08
     b38:	f8 01       	movw	r30, r16
     b3a:	e2 0f       	add	r30, r18
     b3c:	f3 1f       	adc	r31, r19
     b3e:	10 82       	st	Z, r1
     b40:	2e 96       	adiw	r28, 0x0e	; 14
     b42:	0f b6       	in	r0, 0x3f	; 63
     b44:	f8 94       	cli
     b46:	de bf       	out	0x3e, r29	; 62
     b48:	0f be       	out	0x3f, r0	; 63
     b4a:	cd bf       	out	0x3d, r28	; 61
     b4c:	df 91       	pop	r29
     b4e:	cf 91       	pop	r28
     b50:	1f 91       	pop	r17
     b52:	0f 91       	pop	r16
     b54:	08 95       	ret

00000b56 <vfprintf>:
     b56:	2f 92       	push	r2
     b58:	3f 92       	push	r3
     b5a:	4f 92       	push	r4
     b5c:	5f 92       	push	r5
     b5e:	6f 92       	push	r6
     b60:	7f 92       	push	r7
     b62:	8f 92       	push	r8
     b64:	9f 92       	push	r9
     b66:	af 92       	push	r10
     b68:	bf 92       	push	r11
     b6a:	cf 92       	push	r12
     b6c:	df 92       	push	r13
     b6e:	ef 92       	push	r14
     b70:	ff 92       	push	r15
     b72:	0f 93       	push	r16
     b74:	1f 93       	push	r17
     b76:	cf 93       	push	r28
     b78:	df 93       	push	r29
     b7a:	cd b7       	in	r28, 0x3d	; 61
     b7c:	de b7       	in	r29, 0x3e	; 62
     b7e:	2c 97       	sbiw	r28, 0x0c	; 12
     b80:	0f b6       	in	r0, 0x3f	; 63
     b82:	f8 94       	cli
     b84:	de bf       	out	0x3e, r29	; 62
     b86:	0f be       	out	0x3f, r0	; 63
     b88:	cd bf       	out	0x3d, r28	; 61
     b8a:	7c 01       	movw	r14, r24
     b8c:	6b 01       	movw	r12, r22
     b8e:	8a 01       	movw	r16, r20
     b90:	fc 01       	movw	r30, r24
     b92:	17 82       	std	Z+7, r1	; 0x07
     b94:	16 82       	std	Z+6, r1	; 0x06
     b96:	83 81       	ldd	r24, Z+3	; 0x03
     b98:	81 ff       	sbrs	r24, 1
     b9a:	b0 c1       	rjmp	.+864    	; 0xefc <vfprintf+0x3a6>
     b9c:	ce 01       	movw	r24, r28
     b9e:	01 96       	adiw	r24, 0x01	; 1
     ba0:	4c 01       	movw	r8, r24
     ba2:	f7 01       	movw	r30, r14
     ba4:	93 81       	ldd	r25, Z+3	; 0x03
     ba6:	f6 01       	movw	r30, r12
     ba8:	93 fd       	sbrc	r25, 3
     baa:	85 91       	lpm	r24, Z+
     bac:	93 ff       	sbrs	r25, 3
     bae:	81 91       	ld	r24, Z+
     bb0:	6f 01       	movw	r12, r30
     bb2:	88 23       	and	r24, r24
     bb4:	09 f4       	brne	.+2      	; 0xbb8 <vfprintf+0x62>
     bb6:	9e c1       	rjmp	.+828    	; 0xef4 <vfprintf+0x39e>
     bb8:	85 32       	cpi	r24, 0x25	; 37
     bba:	39 f4       	brne	.+14     	; 0xbca <vfprintf+0x74>
     bbc:	93 fd       	sbrc	r25, 3
     bbe:	85 91       	lpm	r24, Z+
     bc0:	93 ff       	sbrs	r25, 3
     bc2:	81 91       	ld	r24, Z+
     bc4:	6f 01       	movw	r12, r30
     bc6:	85 32       	cpi	r24, 0x25	; 37
     bc8:	21 f4       	brne	.+8      	; 0xbd2 <vfprintf+0x7c>
     bca:	b7 01       	movw	r22, r14
     bcc:	90 e0       	ldi	r25, 0x00	; 0
     bce:	c7 d1       	rcall	.+910    	; 0xf5e <fputc>
     bd0:	e8 cf       	rjmp	.-48     	; 0xba2 <vfprintf+0x4c>
     bd2:	51 2c       	mov	r5, r1
     bd4:	31 2c       	mov	r3, r1
     bd6:	20 e0       	ldi	r18, 0x00	; 0
     bd8:	20 32       	cpi	r18, 0x20	; 32
     bda:	a0 f4       	brcc	.+40     	; 0xc04 <vfprintf+0xae>
     bdc:	8b 32       	cpi	r24, 0x2B	; 43
     bde:	69 f0       	breq	.+26     	; 0xbfa <vfprintf+0xa4>
     be0:	30 f4       	brcc	.+12     	; 0xbee <vfprintf+0x98>
     be2:	80 32       	cpi	r24, 0x20	; 32
     be4:	59 f0       	breq	.+22     	; 0xbfc <vfprintf+0xa6>
     be6:	83 32       	cpi	r24, 0x23	; 35
     be8:	69 f4       	brne	.+26     	; 0xc04 <vfprintf+0xae>
     bea:	20 61       	ori	r18, 0x10	; 16
     bec:	2c c0       	rjmp	.+88     	; 0xc46 <vfprintf+0xf0>
     bee:	8d 32       	cpi	r24, 0x2D	; 45
     bf0:	39 f0       	breq	.+14     	; 0xc00 <vfprintf+0xaa>
     bf2:	80 33       	cpi	r24, 0x30	; 48
     bf4:	39 f4       	brne	.+14     	; 0xc04 <vfprintf+0xae>
     bf6:	21 60       	ori	r18, 0x01	; 1
     bf8:	26 c0       	rjmp	.+76     	; 0xc46 <vfprintf+0xf0>
     bfa:	22 60       	ori	r18, 0x02	; 2
     bfc:	24 60       	ori	r18, 0x04	; 4
     bfe:	23 c0       	rjmp	.+70     	; 0xc46 <vfprintf+0xf0>
     c00:	28 60       	ori	r18, 0x08	; 8
     c02:	21 c0       	rjmp	.+66     	; 0xc46 <vfprintf+0xf0>
     c04:	27 fd       	sbrc	r18, 7
     c06:	27 c0       	rjmp	.+78     	; 0xc56 <vfprintf+0x100>
     c08:	30 ed       	ldi	r19, 0xD0	; 208
     c0a:	38 0f       	add	r19, r24
     c0c:	3a 30       	cpi	r19, 0x0A	; 10
     c0e:	78 f4       	brcc	.+30     	; 0xc2e <vfprintf+0xd8>
     c10:	26 ff       	sbrs	r18, 6
     c12:	06 c0       	rjmp	.+12     	; 0xc20 <vfprintf+0xca>
     c14:	fa e0       	ldi	r31, 0x0A	; 10
     c16:	5f 9e       	mul	r5, r31
     c18:	30 0d       	add	r19, r0
     c1a:	11 24       	eor	r1, r1
     c1c:	53 2e       	mov	r5, r19
     c1e:	13 c0       	rjmp	.+38     	; 0xc46 <vfprintf+0xf0>
     c20:	8a e0       	ldi	r24, 0x0A	; 10
     c22:	38 9e       	mul	r3, r24
     c24:	30 0d       	add	r19, r0
     c26:	11 24       	eor	r1, r1
     c28:	33 2e       	mov	r3, r19
     c2a:	20 62       	ori	r18, 0x20	; 32
     c2c:	0c c0       	rjmp	.+24     	; 0xc46 <vfprintf+0xf0>
     c2e:	8e 32       	cpi	r24, 0x2E	; 46
     c30:	21 f4       	brne	.+8      	; 0xc3a <vfprintf+0xe4>
     c32:	26 fd       	sbrc	r18, 6
     c34:	5f c1       	rjmp	.+702    	; 0xef4 <vfprintf+0x39e>
     c36:	20 64       	ori	r18, 0x40	; 64
     c38:	06 c0       	rjmp	.+12     	; 0xc46 <vfprintf+0xf0>
     c3a:	8c 36       	cpi	r24, 0x6C	; 108
     c3c:	11 f4       	brne	.+4      	; 0xc42 <vfprintf+0xec>
     c3e:	20 68       	ori	r18, 0x80	; 128
     c40:	02 c0       	rjmp	.+4      	; 0xc46 <vfprintf+0xf0>
     c42:	88 36       	cpi	r24, 0x68	; 104
     c44:	41 f4       	brne	.+16     	; 0xc56 <vfprintf+0x100>
     c46:	f6 01       	movw	r30, r12
     c48:	93 fd       	sbrc	r25, 3
     c4a:	85 91       	lpm	r24, Z+
     c4c:	93 ff       	sbrs	r25, 3
     c4e:	81 91       	ld	r24, Z+
     c50:	6f 01       	movw	r12, r30
     c52:	81 11       	cpse	r24, r1
     c54:	c1 cf       	rjmp	.-126    	; 0xbd8 <vfprintf+0x82>
     c56:	98 2f       	mov	r25, r24
     c58:	9f 7d       	andi	r25, 0xDF	; 223
     c5a:	95 54       	subi	r25, 0x45	; 69
     c5c:	93 30       	cpi	r25, 0x03	; 3
     c5e:	28 f4       	brcc	.+10     	; 0xc6a <vfprintf+0x114>
     c60:	0c 5f       	subi	r16, 0xFC	; 252
     c62:	1f 4f       	sbci	r17, 0xFF	; 255
     c64:	ff e3       	ldi	r31, 0x3F	; 63
     c66:	f9 83       	std	Y+1, r31	; 0x01
     c68:	0d c0       	rjmp	.+26     	; 0xc84 <vfprintf+0x12e>
     c6a:	83 36       	cpi	r24, 0x63	; 99
     c6c:	31 f0       	breq	.+12     	; 0xc7a <vfprintf+0x124>
     c6e:	83 37       	cpi	r24, 0x73	; 115
     c70:	71 f0       	breq	.+28     	; 0xc8e <vfprintf+0x138>
     c72:	83 35       	cpi	r24, 0x53	; 83
     c74:	09 f0       	breq	.+2      	; 0xc78 <vfprintf+0x122>
     c76:	57 c0       	rjmp	.+174    	; 0xd26 <vfprintf+0x1d0>
     c78:	21 c0       	rjmp	.+66     	; 0xcbc <vfprintf+0x166>
     c7a:	f8 01       	movw	r30, r16
     c7c:	80 81       	ld	r24, Z
     c7e:	89 83       	std	Y+1, r24	; 0x01
     c80:	0e 5f       	subi	r16, 0xFE	; 254
     c82:	1f 4f       	sbci	r17, 0xFF	; 255
     c84:	44 24       	eor	r4, r4
     c86:	43 94       	inc	r4
     c88:	51 2c       	mov	r5, r1
     c8a:	54 01       	movw	r10, r8
     c8c:	14 c0       	rjmp	.+40     	; 0xcb6 <vfprintf+0x160>
     c8e:	38 01       	movw	r6, r16
     c90:	f2 e0       	ldi	r31, 0x02	; 2
     c92:	6f 0e       	add	r6, r31
     c94:	71 1c       	adc	r7, r1
     c96:	f8 01       	movw	r30, r16
     c98:	a0 80       	ld	r10, Z
     c9a:	b1 80       	ldd	r11, Z+1	; 0x01
     c9c:	26 ff       	sbrs	r18, 6
     c9e:	03 c0       	rjmp	.+6      	; 0xca6 <vfprintf+0x150>
     ca0:	65 2d       	mov	r22, r5
     ca2:	70 e0       	ldi	r23, 0x00	; 0
     ca4:	02 c0       	rjmp	.+4      	; 0xcaa <vfprintf+0x154>
     ca6:	6f ef       	ldi	r22, 0xFF	; 255
     ca8:	7f ef       	ldi	r23, 0xFF	; 255
     caa:	c5 01       	movw	r24, r10
     cac:	2c 87       	std	Y+12, r18	; 0x0c
     cae:	4c d1       	rcall	.+664    	; 0xf48 <strnlen>
     cb0:	2c 01       	movw	r4, r24
     cb2:	83 01       	movw	r16, r6
     cb4:	2c 85       	ldd	r18, Y+12	; 0x0c
     cb6:	2f 77       	andi	r18, 0x7F	; 127
     cb8:	22 2e       	mov	r2, r18
     cba:	16 c0       	rjmp	.+44     	; 0xce8 <vfprintf+0x192>
     cbc:	38 01       	movw	r6, r16
     cbe:	f2 e0       	ldi	r31, 0x02	; 2
     cc0:	6f 0e       	add	r6, r31
     cc2:	71 1c       	adc	r7, r1
     cc4:	f8 01       	movw	r30, r16
     cc6:	a0 80       	ld	r10, Z
     cc8:	b1 80       	ldd	r11, Z+1	; 0x01
     cca:	26 ff       	sbrs	r18, 6
     ccc:	03 c0       	rjmp	.+6      	; 0xcd4 <vfprintf+0x17e>
     cce:	65 2d       	mov	r22, r5
     cd0:	70 e0       	ldi	r23, 0x00	; 0
     cd2:	02 c0       	rjmp	.+4      	; 0xcd8 <vfprintf+0x182>
     cd4:	6f ef       	ldi	r22, 0xFF	; 255
     cd6:	7f ef       	ldi	r23, 0xFF	; 255
     cd8:	c5 01       	movw	r24, r10
     cda:	2c 87       	std	Y+12, r18	; 0x0c
     cdc:	2a d1       	rcall	.+596    	; 0xf32 <strnlen_P>
     cde:	2c 01       	movw	r4, r24
     ce0:	2c 85       	ldd	r18, Y+12	; 0x0c
     ce2:	20 68       	ori	r18, 0x80	; 128
     ce4:	22 2e       	mov	r2, r18
     ce6:	83 01       	movw	r16, r6
     ce8:	23 fc       	sbrc	r2, 3
     cea:	19 c0       	rjmp	.+50     	; 0xd1e <vfprintf+0x1c8>
     cec:	83 2d       	mov	r24, r3
     cee:	90 e0       	ldi	r25, 0x00	; 0
     cf0:	48 16       	cp	r4, r24
     cf2:	59 06       	cpc	r5, r25
     cf4:	a0 f4       	brcc	.+40     	; 0xd1e <vfprintf+0x1c8>
     cf6:	b7 01       	movw	r22, r14
     cf8:	80 e2       	ldi	r24, 0x20	; 32
     cfa:	90 e0       	ldi	r25, 0x00	; 0
     cfc:	30 d1       	rcall	.+608    	; 0xf5e <fputc>
     cfe:	3a 94       	dec	r3
     d00:	f5 cf       	rjmp	.-22     	; 0xcec <vfprintf+0x196>
     d02:	f5 01       	movw	r30, r10
     d04:	27 fc       	sbrc	r2, 7
     d06:	85 91       	lpm	r24, Z+
     d08:	27 fe       	sbrs	r2, 7
     d0a:	81 91       	ld	r24, Z+
     d0c:	5f 01       	movw	r10, r30
     d0e:	b7 01       	movw	r22, r14
     d10:	90 e0       	ldi	r25, 0x00	; 0
     d12:	25 d1       	rcall	.+586    	; 0xf5e <fputc>
     d14:	31 10       	cpse	r3, r1
     d16:	3a 94       	dec	r3
     d18:	f1 e0       	ldi	r31, 0x01	; 1
     d1a:	4f 1a       	sub	r4, r31
     d1c:	51 08       	sbc	r5, r1
     d1e:	41 14       	cp	r4, r1
     d20:	51 04       	cpc	r5, r1
     d22:	79 f7       	brne	.-34     	; 0xd02 <vfprintf+0x1ac>
     d24:	de c0       	rjmp	.+444    	; 0xee2 <vfprintf+0x38c>
     d26:	84 36       	cpi	r24, 0x64	; 100
     d28:	11 f0       	breq	.+4      	; 0xd2e <vfprintf+0x1d8>
     d2a:	89 36       	cpi	r24, 0x69	; 105
     d2c:	31 f5       	brne	.+76     	; 0xd7a <vfprintf+0x224>
     d2e:	f8 01       	movw	r30, r16
     d30:	27 ff       	sbrs	r18, 7
     d32:	07 c0       	rjmp	.+14     	; 0xd42 <vfprintf+0x1ec>
     d34:	60 81       	ld	r22, Z
     d36:	71 81       	ldd	r23, Z+1	; 0x01
     d38:	82 81       	ldd	r24, Z+2	; 0x02
     d3a:	93 81       	ldd	r25, Z+3	; 0x03
     d3c:	0c 5f       	subi	r16, 0xFC	; 252
     d3e:	1f 4f       	sbci	r17, 0xFF	; 255
     d40:	08 c0       	rjmp	.+16     	; 0xd52 <vfprintf+0x1fc>
     d42:	60 81       	ld	r22, Z
     d44:	71 81       	ldd	r23, Z+1	; 0x01
     d46:	07 2e       	mov	r0, r23
     d48:	00 0c       	add	r0, r0
     d4a:	88 0b       	sbc	r24, r24
     d4c:	99 0b       	sbc	r25, r25
     d4e:	0e 5f       	subi	r16, 0xFE	; 254
     d50:	1f 4f       	sbci	r17, 0xFF	; 255
     d52:	2f 76       	andi	r18, 0x6F	; 111
     d54:	72 2e       	mov	r7, r18
     d56:	97 ff       	sbrs	r25, 7
     d58:	09 c0       	rjmp	.+18     	; 0xd6c <vfprintf+0x216>
     d5a:	90 95       	com	r25
     d5c:	80 95       	com	r24
     d5e:	70 95       	com	r23
     d60:	61 95       	neg	r22
     d62:	7f 4f       	sbci	r23, 0xFF	; 255
     d64:	8f 4f       	sbci	r24, 0xFF	; 255
     d66:	9f 4f       	sbci	r25, 0xFF	; 255
     d68:	20 68       	ori	r18, 0x80	; 128
     d6a:	72 2e       	mov	r7, r18
     d6c:	2a e0       	ldi	r18, 0x0A	; 10
     d6e:	30 e0       	ldi	r19, 0x00	; 0
     d70:	a4 01       	movw	r20, r8
     d72:	2d d1       	rcall	.+602    	; 0xfce <__ultoa_invert>
     d74:	a8 2e       	mov	r10, r24
     d76:	a8 18       	sub	r10, r8
     d78:	43 c0       	rjmp	.+134    	; 0xe00 <vfprintf+0x2aa>
     d7a:	85 37       	cpi	r24, 0x75	; 117
     d7c:	29 f4       	brne	.+10     	; 0xd88 <vfprintf+0x232>
     d7e:	2f 7e       	andi	r18, 0xEF	; 239
     d80:	b2 2e       	mov	r11, r18
     d82:	2a e0       	ldi	r18, 0x0A	; 10
     d84:	30 e0       	ldi	r19, 0x00	; 0
     d86:	25 c0       	rjmp	.+74     	; 0xdd2 <vfprintf+0x27c>
     d88:	f2 2f       	mov	r31, r18
     d8a:	f9 7f       	andi	r31, 0xF9	; 249
     d8c:	bf 2e       	mov	r11, r31
     d8e:	8f 36       	cpi	r24, 0x6F	; 111
     d90:	c1 f0       	breq	.+48     	; 0xdc2 <vfprintf+0x26c>
     d92:	18 f4       	brcc	.+6      	; 0xd9a <vfprintf+0x244>
     d94:	88 35       	cpi	r24, 0x58	; 88
     d96:	79 f0       	breq	.+30     	; 0xdb6 <vfprintf+0x260>
     d98:	ad c0       	rjmp	.+346    	; 0xef4 <vfprintf+0x39e>
     d9a:	80 37       	cpi	r24, 0x70	; 112
     d9c:	19 f0       	breq	.+6      	; 0xda4 <vfprintf+0x24e>
     d9e:	88 37       	cpi	r24, 0x78	; 120
     da0:	21 f0       	breq	.+8      	; 0xdaa <vfprintf+0x254>
     da2:	a8 c0       	rjmp	.+336    	; 0xef4 <vfprintf+0x39e>
     da4:	2f 2f       	mov	r18, r31
     da6:	20 61       	ori	r18, 0x10	; 16
     da8:	b2 2e       	mov	r11, r18
     daa:	b4 fe       	sbrs	r11, 4
     dac:	0d c0       	rjmp	.+26     	; 0xdc8 <vfprintf+0x272>
     dae:	8b 2d       	mov	r24, r11
     db0:	84 60       	ori	r24, 0x04	; 4
     db2:	b8 2e       	mov	r11, r24
     db4:	09 c0       	rjmp	.+18     	; 0xdc8 <vfprintf+0x272>
     db6:	24 ff       	sbrs	r18, 4
     db8:	0a c0       	rjmp	.+20     	; 0xdce <vfprintf+0x278>
     dba:	9f 2f       	mov	r25, r31
     dbc:	96 60       	ori	r25, 0x06	; 6
     dbe:	b9 2e       	mov	r11, r25
     dc0:	06 c0       	rjmp	.+12     	; 0xdce <vfprintf+0x278>
     dc2:	28 e0       	ldi	r18, 0x08	; 8
     dc4:	30 e0       	ldi	r19, 0x00	; 0
     dc6:	05 c0       	rjmp	.+10     	; 0xdd2 <vfprintf+0x27c>
     dc8:	20 e1       	ldi	r18, 0x10	; 16
     dca:	30 e0       	ldi	r19, 0x00	; 0
     dcc:	02 c0       	rjmp	.+4      	; 0xdd2 <vfprintf+0x27c>
     dce:	20 e1       	ldi	r18, 0x10	; 16
     dd0:	32 e0       	ldi	r19, 0x02	; 2
     dd2:	f8 01       	movw	r30, r16
     dd4:	b7 fe       	sbrs	r11, 7
     dd6:	07 c0       	rjmp	.+14     	; 0xde6 <vfprintf+0x290>
     dd8:	60 81       	ld	r22, Z
     dda:	71 81       	ldd	r23, Z+1	; 0x01
     ddc:	82 81       	ldd	r24, Z+2	; 0x02
     dde:	93 81       	ldd	r25, Z+3	; 0x03
     de0:	0c 5f       	subi	r16, 0xFC	; 252
     de2:	1f 4f       	sbci	r17, 0xFF	; 255
     de4:	06 c0       	rjmp	.+12     	; 0xdf2 <vfprintf+0x29c>
     de6:	60 81       	ld	r22, Z
     de8:	71 81       	ldd	r23, Z+1	; 0x01
     dea:	80 e0       	ldi	r24, 0x00	; 0
     dec:	90 e0       	ldi	r25, 0x00	; 0
     dee:	0e 5f       	subi	r16, 0xFE	; 254
     df0:	1f 4f       	sbci	r17, 0xFF	; 255
     df2:	a4 01       	movw	r20, r8
     df4:	ec d0       	rcall	.+472    	; 0xfce <__ultoa_invert>
     df6:	a8 2e       	mov	r10, r24
     df8:	a8 18       	sub	r10, r8
     dfa:	fb 2d       	mov	r31, r11
     dfc:	ff 77       	andi	r31, 0x7F	; 127
     dfe:	7f 2e       	mov	r7, r31
     e00:	76 fe       	sbrs	r7, 6
     e02:	0b c0       	rjmp	.+22     	; 0xe1a <vfprintf+0x2c4>
     e04:	37 2d       	mov	r19, r7
     e06:	3e 7f       	andi	r19, 0xFE	; 254
     e08:	a5 14       	cp	r10, r5
     e0a:	50 f4       	brcc	.+20     	; 0xe20 <vfprintf+0x2ca>
     e0c:	74 fe       	sbrs	r7, 4
     e0e:	0a c0       	rjmp	.+20     	; 0xe24 <vfprintf+0x2ce>
     e10:	72 fc       	sbrc	r7, 2
     e12:	08 c0       	rjmp	.+16     	; 0xe24 <vfprintf+0x2ce>
     e14:	37 2d       	mov	r19, r7
     e16:	3e 7e       	andi	r19, 0xEE	; 238
     e18:	05 c0       	rjmp	.+10     	; 0xe24 <vfprintf+0x2ce>
     e1a:	ba 2c       	mov	r11, r10
     e1c:	37 2d       	mov	r19, r7
     e1e:	03 c0       	rjmp	.+6      	; 0xe26 <vfprintf+0x2d0>
     e20:	ba 2c       	mov	r11, r10
     e22:	01 c0       	rjmp	.+2      	; 0xe26 <vfprintf+0x2d0>
     e24:	b5 2c       	mov	r11, r5
     e26:	34 ff       	sbrs	r19, 4
     e28:	0d c0       	rjmp	.+26     	; 0xe44 <vfprintf+0x2ee>
     e2a:	fe 01       	movw	r30, r28
     e2c:	ea 0d       	add	r30, r10
     e2e:	f1 1d       	adc	r31, r1
     e30:	80 81       	ld	r24, Z
     e32:	80 33       	cpi	r24, 0x30	; 48
     e34:	11 f4       	brne	.+4      	; 0xe3a <vfprintf+0x2e4>
     e36:	39 7e       	andi	r19, 0xE9	; 233
     e38:	09 c0       	rjmp	.+18     	; 0xe4c <vfprintf+0x2f6>
     e3a:	32 ff       	sbrs	r19, 2
     e3c:	06 c0       	rjmp	.+12     	; 0xe4a <vfprintf+0x2f4>
     e3e:	b3 94       	inc	r11
     e40:	b3 94       	inc	r11
     e42:	04 c0       	rjmp	.+8      	; 0xe4c <vfprintf+0x2f6>
     e44:	83 2f       	mov	r24, r19
     e46:	86 78       	andi	r24, 0x86	; 134
     e48:	09 f0       	breq	.+2      	; 0xe4c <vfprintf+0x2f6>
     e4a:	b3 94       	inc	r11
     e4c:	33 fd       	sbrc	r19, 3
     e4e:	12 c0       	rjmp	.+36     	; 0xe74 <vfprintf+0x31e>
     e50:	30 ff       	sbrs	r19, 0
     e52:	06 c0       	rjmp	.+12     	; 0xe60 <vfprintf+0x30a>
     e54:	5a 2c       	mov	r5, r10
     e56:	b3 14       	cp	r11, r3
     e58:	18 f4       	brcc	.+6      	; 0xe60 <vfprintf+0x30a>
     e5a:	53 0c       	add	r5, r3
     e5c:	5b 18       	sub	r5, r11
     e5e:	b3 2c       	mov	r11, r3
     e60:	b3 14       	cp	r11, r3
     e62:	60 f4       	brcc	.+24     	; 0xe7c <vfprintf+0x326>
     e64:	b7 01       	movw	r22, r14
     e66:	80 e2       	ldi	r24, 0x20	; 32
     e68:	90 e0       	ldi	r25, 0x00	; 0
     e6a:	3c 87       	std	Y+12, r19	; 0x0c
     e6c:	78 d0       	rcall	.+240    	; 0xf5e <fputc>
     e6e:	b3 94       	inc	r11
     e70:	3c 85       	ldd	r19, Y+12	; 0x0c
     e72:	f6 cf       	rjmp	.-20     	; 0xe60 <vfprintf+0x30a>
     e74:	b3 14       	cp	r11, r3
     e76:	10 f4       	brcc	.+4      	; 0xe7c <vfprintf+0x326>
     e78:	3b 18       	sub	r3, r11
     e7a:	01 c0       	rjmp	.+2      	; 0xe7e <vfprintf+0x328>
     e7c:	31 2c       	mov	r3, r1
     e7e:	34 ff       	sbrs	r19, 4
     e80:	11 c0       	rjmp	.+34     	; 0xea4 <vfprintf+0x34e>
     e82:	b7 01       	movw	r22, r14
     e84:	80 e3       	ldi	r24, 0x30	; 48
     e86:	90 e0       	ldi	r25, 0x00	; 0
     e88:	3c 87       	std	Y+12, r19	; 0x0c
     e8a:	69 d0       	rcall	.+210    	; 0xf5e <fputc>
     e8c:	3c 85       	ldd	r19, Y+12	; 0x0c
     e8e:	32 ff       	sbrs	r19, 2
     e90:	16 c0       	rjmp	.+44     	; 0xebe <vfprintf+0x368>
     e92:	31 fd       	sbrc	r19, 1
     e94:	03 c0       	rjmp	.+6      	; 0xe9c <vfprintf+0x346>
     e96:	88 e7       	ldi	r24, 0x78	; 120
     e98:	90 e0       	ldi	r25, 0x00	; 0
     e9a:	02 c0       	rjmp	.+4      	; 0xea0 <vfprintf+0x34a>
     e9c:	88 e5       	ldi	r24, 0x58	; 88
     e9e:	90 e0       	ldi	r25, 0x00	; 0
     ea0:	b7 01       	movw	r22, r14
     ea2:	0c c0       	rjmp	.+24     	; 0xebc <vfprintf+0x366>
     ea4:	83 2f       	mov	r24, r19
     ea6:	86 78       	andi	r24, 0x86	; 134
     ea8:	51 f0       	breq	.+20     	; 0xebe <vfprintf+0x368>
     eaa:	31 ff       	sbrs	r19, 1
     eac:	02 c0       	rjmp	.+4      	; 0xeb2 <vfprintf+0x35c>
     eae:	8b e2       	ldi	r24, 0x2B	; 43
     eb0:	01 c0       	rjmp	.+2      	; 0xeb4 <vfprintf+0x35e>
     eb2:	80 e2       	ldi	r24, 0x20	; 32
     eb4:	37 fd       	sbrc	r19, 7
     eb6:	8d e2       	ldi	r24, 0x2D	; 45
     eb8:	b7 01       	movw	r22, r14
     eba:	90 e0       	ldi	r25, 0x00	; 0
     ebc:	50 d0       	rcall	.+160    	; 0xf5e <fputc>
     ebe:	a5 14       	cp	r10, r5
     ec0:	30 f4       	brcc	.+12     	; 0xece <vfprintf+0x378>
     ec2:	b7 01       	movw	r22, r14
     ec4:	80 e3       	ldi	r24, 0x30	; 48
     ec6:	90 e0       	ldi	r25, 0x00	; 0
     ec8:	4a d0       	rcall	.+148    	; 0xf5e <fputc>
     eca:	5a 94       	dec	r5
     ecc:	f8 cf       	rjmp	.-16     	; 0xebe <vfprintf+0x368>
     ece:	aa 94       	dec	r10
     ed0:	f4 01       	movw	r30, r8
     ed2:	ea 0d       	add	r30, r10
     ed4:	f1 1d       	adc	r31, r1
     ed6:	80 81       	ld	r24, Z
     ed8:	b7 01       	movw	r22, r14
     eda:	90 e0       	ldi	r25, 0x00	; 0
     edc:	40 d0       	rcall	.+128    	; 0xf5e <fputc>
     ede:	a1 10       	cpse	r10, r1
     ee0:	f6 cf       	rjmp	.-20     	; 0xece <vfprintf+0x378>
     ee2:	33 20       	and	r3, r3
     ee4:	09 f4       	brne	.+2      	; 0xee8 <vfprintf+0x392>
     ee6:	5d ce       	rjmp	.-838    	; 0xba2 <vfprintf+0x4c>
     ee8:	b7 01       	movw	r22, r14
     eea:	80 e2       	ldi	r24, 0x20	; 32
     eec:	90 e0       	ldi	r25, 0x00	; 0
     eee:	37 d0       	rcall	.+110    	; 0xf5e <fputc>
     ef0:	3a 94       	dec	r3
     ef2:	f7 cf       	rjmp	.-18     	; 0xee2 <vfprintf+0x38c>
     ef4:	f7 01       	movw	r30, r14
     ef6:	86 81       	ldd	r24, Z+6	; 0x06
     ef8:	97 81       	ldd	r25, Z+7	; 0x07
     efa:	02 c0       	rjmp	.+4      	; 0xf00 <vfprintf+0x3aa>
     efc:	8f ef       	ldi	r24, 0xFF	; 255
     efe:	9f ef       	ldi	r25, 0xFF	; 255
     f00:	2c 96       	adiw	r28, 0x0c	; 12
     f02:	0f b6       	in	r0, 0x3f	; 63
     f04:	f8 94       	cli
     f06:	de bf       	out	0x3e, r29	; 62
     f08:	0f be       	out	0x3f, r0	; 63
     f0a:	cd bf       	out	0x3d, r28	; 61
     f0c:	df 91       	pop	r29
     f0e:	cf 91       	pop	r28
     f10:	1f 91       	pop	r17
     f12:	0f 91       	pop	r16
     f14:	ff 90       	pop	r15
     f16:	ef 90       	pop	r14
     f18:	df 90       	pop	r13
     f1a:	cf 90       	pop	r12
     f1c:	bf 90       	pop	r11
     f1e:	af 90       	pop	r10
     f20:	9f 90       	pop	r9
     f22:	8f 90       	pop	r8
     f24:	7f 90       	pop	r7
     f26:	6f 90       	pop	r6
     f28:	5f 90       	pop	r5
     f2a:	4f 90       	pop	r4
     f2c:	3f 90       	pop	r3
     f2e:	2f 90       	pop	r2
     f30:	08 95       	ret

00000f32 <strnlen_P>:
     f32:	fc 01       	movw	r30, r24
     f34:	05 90       	lpm	r0, Z+
     f36:	61 50       	subi	r22, 0x01	; 1
     f38:	70 40       	sbci	r23, 0x00	; 0
     f3a:	01 10       	cpse	r0, r1
     f3c:	d8 f7       	brcc	.-10     	; 0xf34 <strnlen_P+0x2>
     f3e:	80 95       	com	r24
     f40:	90 95       	com	r25
     f42:	8e 0f       	add	r24, r30
     f44:	9f 1f       	adc	r25, r31
     f46:	08 95       	ret

00000f48 <strnlen>:
     f48:	fc 01       	movw	r30, r24
     f4a:	61 50       	subi	r22, 0x01	; 1
     f4c:	70 40       	sbci	r23, 0x00	; 0
     f4e:	01 90       	ld	r0, Z+
     f50:	01 10       	cpse	r0, r1
     f52:	d8 f7       	brcc	.-10     	; 0xf4a <strnlen+0x2>
     f54:	80 95       	com	r24
     f56:	90 95       	com	r25
     f58:	8e 0f       	add	r24, r30
     f5a:	9f 1f       	adc	r25, r31
     f5c:	08 95       	ret

00000f5e <fputc>:
     f5e:	0f 93       	push	r16
     f60:	1f 93       	push	r17
     f62:	cf 93       	push	r28
     f64:	df 93       	push	r29
     f66:	fb 01       	movw	r30, r22
     f68:	23 81       	ldd	r18, Z+3	; 0x03
     f6a:	21 fd       	sbrc	r18, 1
     f6c:	03 c0       	rjmp	.+6      	; 0xf74 <fputc+0x16>
     f6e:	8f ef       	ldi	r24, 0xFF	; 255
     f70:	9f ef       	ldi	r25, 0xFF	; 255
     f72:	28 c0       	rjmp	.+80     	; 0xfc4 <fputc+0x66>
     f74:	22 ff       	sbrs	r18, 2
     f76:	16 c0       	rjmp	.+44     	; 0xfa4 <fputc+0x46>
     f78:	46 81       	ldd	r20, Z+6	; 0x06
     f7a:	57 81       	ldd	r21, Z+7	; 0x07
     f7c:	24 81       	ldd	r18, Z+4	; 0x04
     f7e:	35 81       	ldd	r19, Z+5	; 0x05
     f80:	42 17       	cp	r20, r18
     f82:	53 07       	cpc	r21, r19
     f84:	44 f4       	brge	.+16     	; 0xf96 <fputc+0x38>
     f86:	a0 81       	ld	r26, Z
     f88:	b1 81       	ldd	r27, Z+1	; 0x01
     f8a:	9d 01       	movw	r18, r26
     f8c:	2f 5f       	subi	r18, 0xFF	; 255
     f8e:	3f 4f       	sbci	r19, 0xFF	; 255
     f90:	31 83       	std	Z+1, r19	; 0x01
     f92:	20 83       	st	Z, r18
     f94:	8c 93       	st	X, r24
     f96:	26 81       	ldd	r18, Z+6	; 0x06
     f98:	37 81       	ldd	r19, Z+7	; 0x07
     f9a:	2f 5f       	subi	r18, 0xFF	; 255
     f9c:	3f 4f       	sbci	r19, 0xFF	; 255
     f9e:	37 83       	std	Z+7, r19	; 0x07
     fa0:	26 83       	std	Z+6, r18	; 0x06
     fa2:	10 c0       	rjmp	.+32     	; 0xfc4 <fputc+0x66>
     fa4:	eb 01       	movw	r28, r22
     fa6:	09 2f       	mov	r16, r25
     fa8:	18 2f       	mov	r17, r24
     faa:	00 84       	ldd	r0, Z+8	; 0x08
     fac:	f1 85       	ldd	r31, Z+9	; 0x09
     fae:	e0 2d       	mov	r30, r0
     fb0:	09 95       	icall
     fb2:	89 2b       	or	r24, r25
     fb4:	e1 f6       	brne	.-72     	; 0xf6e <fputc+0x10>
     fb6:	8e 81       	ldd	r24, Y+6	; 0x06
     fb8:	9f 81       	ldd	r25, Y+7	; 0x07
     fba:	01 96       	adiw	r24, 0x01	; 1
     fbc:	9f 83       	std	Y+7, r25	; 0x07
     fbe:	8e 83       	std	Y+6, r24	; 0x06
     fc0:	81 2f       	mov	r24, r17
     fc2:	90 2f       	mov	r25, r16
     fc4:	df 91       	pop	r29
     fc6:	cf 91       	pop	r28
     fc8:	1f 91       	pop	r17
     fca:	0f 91       	pop	r16
     fcc:	08 95       	ret

00000fce <__ultoa_invert>:
     fce:	fa 01       	movw	r30, r20
     fd0:	aa 27       	eor	r26, r26
     fd2:	28 30       	cpi	r18, 0x08	; 8
     fd4:	51 f1       	breq	.+84     	; 0x102a <__ultoa_invert+0x5c>
     fd6:	20 31       	cpi	r18, 0x10	; 16
     fd8:	81 f1       	breq	.+96     	; 0x103a <__ultoa_invert+0x6c>
     fda:	e8 94       	clt
     fdc:	6f 93       	push	r22
     fde:	6e 7f       	andi	r22, 0xFE	; 254
     fe0:	6e 5f       	subi	r22, 0xFE	; 254
     fe2:	7f 4f       	sbci	r23, 0xFF	; 255
     fe4:	8f 4f       	sbci	r24, 0xFF	; 255
     fe6:	9f 4f       	sbci	r25, 0xFF	; 255
     fe8:	af 4f       	sbci	r26, 0xFF	; 255
     fea:	b1 e0       	ldi	r27, 0x01	; 1
     fec:	3e d0       	rcall	.+124    	; 0x106a <__ultoa_invert+0x9c>
     fee:	b4 e0       	ldi	r27, 0x04	; 4
     ff0:	3c d0       	rcall	.+120    	; 0x106a <__ultoa_invert+0x9c>
     ff2:	67 0f       	add	r22, r23
     ff4:	78 1f       	adc	r23, r24
     ff6:	89 1f       	adc	r24, r25
     ff8:	9a 1f       	adc	r25, r26
     ffa:	a1 1d       	adc	r26, r1
     ffc:	68 0f       	add	r22, r24
     ffe:	79 1f       	adc	r23, r25
    1000:	8a 1f       	adc	r24, r26
    1002:	91 1d       	adc	r25, r1
    1004:	a1 1d       	adc	r26, r1
    1006:	6a 0f       	add	r22, r26
    1008:	71 1d       	adc	r23, r1
    100a:	81 1d       	adc	r24, r1
    100c:	91 1d       	adc	r25, r1
    100e:	a1 1d       	adc	r26, r1
    1010:	20 d0       	rcall	.+64     	; 0x1052 <__ultoa_invert+0x84>
    1012:	09 f4       	brne	.+2      	; 0x1016 <__ultoa_invert+0x48>
    1014:	68 94       	set
    1016:	3f 91       	pop	r19
    1018:	2a e0       	ldi	r18, 0x0A	; 10
    101a:	26 9f       	mul	r18, r22
    101c:	11 24       	eor	r1, r1
    101e:	30 19       	sub	r19, r0
    1020:	30 5d       	subi	r19, 0xD0	; 208
    1022:	31 93       	st	Z+, r19
    1024:	de f6       	brtc	.-74     	; 0xfdc <__ultoa_invert+0xe>
    1026:	cf 01       	movw	r24, r30
    1028:	08 95       	ret
    102a:	46 2f       	mov	r20, r22
    102c:	47 70       	andi	r20, 0x07	; 7
    102e:	40 5d       	subi	r20, 0xD0	; 208
    1030:	41 93       	st	Z+, r20
    1032:	b3 e0       	ldi	r27, 0x03	; 3
    1034:	0f d0       	rcall	.+30     	; 0x1054 <__ultoa_invert+0x86>
    1036:	c9 f7       	brne	.-14     	; 0x102a <__ultoa_invert+0x5c>
    1038:	f6 cf       	rjmp	.-20     	; 0x1026 <__ultoa_invert+0x58>
    103a:	46 2f       	mov	r20, r22
    103c:	4f 70       	andi	r20, 0x0F	; 15
    103e:	40 5d       	subi	r20, 0xD0	; 208
    1040:	4a 33       	cpi	r20, 0x3A	; 58
    1042:	18 f0       	brcs	.+6      	; 0x104a <__ultoa_invert+0x7c>
    1044:	49 5d       	subi	r20, 0xD9	; 217
    1046:	31 fd       	sbrc	r19, 1
    1048:	40 52       	subi	r20, 0x20	; 32
    104a:	41 93       	st	Z+, r20
    104c:	02 d0       	rcall	.+4      	; 0x1052 <__ultoa_invert+0x84>
    104e:	a9 f7       	brne	.-22     	; 0x103a <__ultoa_invert+0x6c>
    1050:	ea cf       	rjmp	.-44     	; 0x1026 <__ultoa_invert+0x58>
    1052:	b4 e0       	ldi	r27, 0x04	; 4
    1054:	a6 95       	lsr	r26
    1056:	97 95       	ror	r25
    1058:	87 95       	ror	r24
    105a:	77 95       	ror	r23
    105c:	67 95       	ror	r22
    105e:	ba 95       	dec	r27
    1060:	c9 f7       	brne	.-14     	; 0x1054 <__ultoa_invert+0x86>
    1062:	00 97       	sbiw	r24, 0x00	; 0
    1064:	61 05       	cpc	r22, r1
    1066:	71 05       	cpc	r23, r1
    1068:	08 95       	ret
    106a:	9b 01       	movw	r18, r22
    106c:	ac 01       	movw	r20, r24
    106e:	0a 2e       	mov	r0, r26
    1070:	06 94       	lsr	r0
    1072:	57 95       	ror	r21
    1074:	47 95       	ror	r20
    1076:	37 95       	ror	r19
    1078:	27 95       	ror	r18
    107a:	ba 95       	dec	r27
    107c:	c9 f7       	brne	.-14     	; 0x1070 <__ultoa_invert+0xa2>
    107e:	62 0f       	add	r22, r18
    1080:	73 1f       	adc	r23, r19
    1082:	84 1f       	adc	r24, r20
    1084:	95 1f       	adc	r25, r21
    1086:	a0 1d       	adc	r26, r0
    1088:	08 95       	ret

0000108a <_exit>:
    108a:	f8 94       	cli

0000108c <__stop_program>:
    108c:	ff cf       	rjmp	.-2      	; 0x108c <__stop_program>
